(lp0
(lp1
S'2018-04-10 23:09:15.301103'
p2
aS'Hablando'
p3
aa(lp4
S'2018-04-10 23:09:16.285811'
p5
ag3
aa(lp6
S'2018-04-10 23:09:16.383199'
p7
ag3
aa(lp8
S'2018-04-10 23:09:16.491434'
p9
ag3
aa(lp10
S'2018-04-10 23:09:16.588357'
p11
ag3
aa(lp12
S'2018-04-10 23:09:16.685887'
p13
ag3
aa(lp14
S'2018-04-10 23:09:16.789121'
p15
ag3
aa(lp16
S'2018-04-10 23:09:16.883258'
p17
ag3
aa(lp18
S'2018-04-10 23:09:16.988967'
p19
ag3
aa(lp20
S'2018-04-10 23:09:17.086880'
p21
ag3
aa(lp22
S'2018-04-10 23:09:17.192399'
p23
ag3
aa(lp24
S'2018-04-10 23:09:17.288107'
p25
ag3
aa(lp26
S'2018-04-10 23:09:17.382004'
p27
ag3
aa(lp28
S'2018-04-10 23:09:17.487467'
p29
ag3
aa(lp30
S'2018-04-10 23:09:17.583441'
p31
ag3
aa(lp32
S'2018-04-10 23:09:17.688068'
p33
ag3
aa(lp34
S'2018-04-10 23:09:17.783647'
p35
ag3
aa(lp36
S'2018-04-10 23:09:17.889511'
p37
ag3
aa(lp38
S'2018-04-10 23:09:17.984113'
p39
ag3
aa(lp40
S'2018-04-10 23:09:18.089095'
p41
ag3
aa(lp42
S'2018-04-10 23:09:18.184502'
p43
ag3
aa(lp44
S'2018-04-10 23:09:18.290379'
p45
ag3
aa(lp46
S'2018-04-10 23:09:18.489055'
p47
ag3
aa(lp48
S'2018-04-10 23:09:18.584545'
p49
ag3
aa(lp50
S'2018-04-10 23:09:18.689556'
p51
ag3
aa(lp52
S'2018-04-10 23:09:18.784394'
p53
ag3
aa(lp54
S'2018-04-10 23:09:18.888116'
p55
ag3
aa(lp56
S'2018-04-10 23:09:18.984837'
p57
ag3
aa(lp58
S'2018-04-10 23:09:19.091401'
p59
ag3
aa(lp60
S'2018-04-10 23:09:19.185502'
p61
ag3
aa(lp62
S'2018-04-10 23:09:19.282286'
p63
ag3
aa(lp64
S'2018-04-10 23:09:19.386755'
p65
ag3
aa(lp66
S'2018-04-10 23:09:19.481657'
p67
ag3
aa(lp68
S'2018-04-10 23:09:19.587813'
p69
ag3
aa(lp70
S'2018-04-10 23:09:19.682016'
p71
ag3
aa(lp72
S'2018-04-10 23:09:19.788698'
p73
ag3
aa(lp74
S'2018-04-10 23:09:19.882008'
p75
ag3
aa(lp76
S'2018-04-10 23:09:19.987629'
p77
ag3
aa(lp78
S'2018-04-10 23:09:20.082290'
p79
ag3
aa(lp80
S'2018-04-10 23:09:20.185374'
p81
ag3
aa(lp82
S'2018-04-10 23:09:20.290870'
p83
ag3
aa(lp84
S'2018-04-10 23:09:20.386663'
p85
ag3
aa(lp86
S'2018-04-10 23:09:20.481861'
p87
ag3
aa(lp88
S'2018-04-10 23:09:20.585832'
p89
ag3
aa(lp90
S'2018-04-10 23:09:20.689900'
p91
ag3
aa(lp92
S'2018-04-10 23:09:20.782966'
p93
ag3
aa(lp94
S'2018-04-10 23:09:20.888530'
p95
ag3
aa(lp96
S'2018-04-10 23:09:20.980801'
p97
ag3
aa(lp98
S'2018-04-10 23:09:21.084435'
p99
ag3
aa(lp100
S'2018-04-10 23:09:21.187097'
p101
ag3
aa(lp102
S'2018-04-10 23:09:21.280872'
p103
ag3
aa(lp104
S'2018-04-10 23:09:21.386463'
p105
ag3
aa(lp106
S'2018-04-10 23:09:21.482079'
p107
ag3
aa(lp108
S'2018-04-10 23:09:21.586644'
p109
ag3
aa(lp110
S'2018-04-10 23:09:21.680375'
p111
ag3
aa(lp112
S'2018-04-10 23:09:21.784958'
p113
ag3
aa(lp114
S'2018-04-10 23:09:21.888863'
p115
ag3
aa(lp116
S'2018-04-10 23:09:21.982441'
p117
ag3
aa(lp118
S'2018-04-10 23:09:22.087280'
p119
ag3
aa(lp120
S'2018-04-10 23:09:22.191363'
p121
ag3
aa(lp122
S'2018-04-10 23:09:22.284132'
p123
ag3
aa(lp124
S'2018-04-10 23:09:22.389371'
p125
ag3
aa(lp126
S'2018-04-10 23:09:22.484624'
p127
ag3
aa(lp128
S'2018-04-10 23:09:22.590655'
p129
ag3
aa(lp130
S'2018-04-10 23:09:22.683486'
p131
ag3
aa(lp132
S'2018-04-10 23:09:22.785729'
p133
ag3
aa(lp134
S'2018-04-10 23:09:22.881508'
p135
ag3
aa(lp136
S'2018-04-10 23:09:22.986824'
p137
ag3
aa(lp138
S'2018-04-10 23:09:23.081052'
p139
ag3
aa(lp140
S'2018-04-10 23:09:23.185660'
p141
ag3
aa(lp142
S'2018-04-10 23:09:23.280490'
p143
ag3
aa(lp144
S'2018-04-10 23:09:23.385056'
p145
ag3
aa(lp146
S'2018-04-10 23:09:23.480496'
p147
ag3
aa(lp148
S'2018-04-10 23:09:23.588433'
p149
ag3
aa(lp150
S'2018-04-10 23:09:23.684774'
p151
ag3
aa(lp152
S'2018-04-10 23:09:23.782270'
p153
ag3
aa(lp154
S'2018-04-10 23:09:23.888330'
p155
ag3
aa(lp156
S'2018-04-10 23:09:23.983660'
p157
ag3
aa(lp158
S'2018-04-10 23:09:24.078869'
p159
ag3
aa(lp160
S'2018-04-10 23:09:24.188076'
p161
ag3
aa(lp162
S'2018-04-10 23:09:24.282095'
p163
ag3
aa(lp164
S'2018-04-10 23:09:24.389478'
p165
ag3
aa(lp166
S'2018-04-10 23:09:24.485874'
p167
ag3
aa(lp168
S'2018-04-10 23:09:24.584336'
p169
ag3
aa(lp170
S'2018-04-10 23:09:24.690380'
p171
ag3
aa(lp172
S'2018-04-10 23:09:24.787950'
p173
ag3
aa(lp174
S'2018-04-10 23:09:24.883547'
p175
ag3
aa(lp176
S'2018-04-10 23:09:24.990007'
p177
ag3
aa(lp178
S'2018-04-10 23:09:25.085878'
p179
ag3
aa(lp180
S'2018-04-10 23:09:25.191828'
p181
ag3
aa(lp182
S'2018-04-10 23:09:25.286877'
p183
ag3
aa(lp184
S'2018-04-10 23:09:25.383324'
p185
ag3
aa(lp186
S'2018-04-10 23:09:25.479643'
p187
ag3
aa(lp188
S'2018-04-10 23:09:25.586188'
p189
ag3
aa(lp190
S'2018-04-10 23:09:25.682046'
p191
ag3
aa(lp192
S'2018-04-10 23:09:25.788228'
p193
ag3
aa(lp194
S'2018-04-10 23:09:25.884860'
p195
ag3
aa(lp196
S'2018-04-10 23:09:25.982152'
p197
ag3
aa(lp198
S'2018-04-10 23:09:26.085629'
p199
ag3
aa(lp200
S'2018-04-10 23:09:26.191190'
p201
ag3
aa(lp202
S'2018-04-10 23:09:26.288567'
p203
ag3
aa(lp204
S'2018-04-10 23:09:26.384233'
p205
ag3
aa(lp206
S'2018-04-10 23:09:26.480002'
p207
ag3
aa(lp208
S'2018-04-10 23:09:26.586998'
p209
ag3
aa(lp210
S'2018-04-10 23:09:26.684630'
p211
ag3
aa(lp212
S'2018-04-10 23:09:26.781335'
p213
ag3
aa(lp214
S'2018-04-10 23:09:26.886336'
p215
ag3
aa(lp216
S'2018-04-10 23:09:26.983578'
p217
ag3
aa(lp218
S'2018-04-10 23:09:27.081089'
p219
ag3
aa(lp220
S'2018-04-10 23:09:27.189089'
p221
ag3
aa(lp222
S'2018-04-10 23:09:27.285771'
p223
ag3
aa(lp224
S'2018-04-10 23:09:27.379078'
p225
ag3
aa(lp226
S'2018-04-10 23:09:27.483882'
p227
ag3
aa(lp228
S'2018-04-10 23:09:27.583319'
p229
ag3
aa(lp230
S'2018-04-10 23:09:27.679457'
p231
ag3
aa(lp232
S'2018-04-10 23:09:27.786748'
p233
ag3
aa(lp234
S'2018-04-10 23:09:27.883293'
p235
ag3
aa(lp236
S'2018-04-10 23:09:27.989158'
p237
ag3
aa(lp238
S'2018-04-10 23:09:28.086944'
p239
ag3
aa(lp240
S'2018-04-10 23:09:28.192731'
p241
ag3
aa(lp242
S'2018-04-10 23:09:28.280651'
p243
ag3
aa(lp244
S'2018-04-10 23:09:28.387095'
p245
ag3
aa(lp246
S'2018-04-10 23:09:28.482885'
p247
ag3
aa(lp248
S'2018-04-10 23:09:28.578070'
p249
ag3
aa(lp250
S'2018-04-10 23:09:28.686586'
p251
ag3
aa(lp252
S'2018-04-10 23:09:28.784612'
p253
ag3
aa(lp254
S'2018-04-10 23:09:28.880395'
p255
ag3
aa(lp256
S'2018-04-10 23:09:28.984963'
p257
ag3
aa(lp258
S'2018-04-10 23:09:29.082567'
p259
ag3
aa(lp260
S'2018-04-10 23:09:29.185815'
p261
ag3
aa(lp262
S'2018-04-10 23:09:29.280178'
p263
ag3
aa(lp264
S'2018-04-10 23:09:29.387848'
p265
ag3
aa(lp266
S'2018-04-10 23:09:29.484369'
p267
ag3
aa(lp268
S'2018-04-10 23:09:29.581093'
p269
ag3
aa(lp270
S'2018-04-10 23:09:29.679999'
p271
ag3
aa(lp272
S'2018-04-10 23:09:29.786422'
p273
ag3
aa(lp274
S'2018-04-10 23:09:29.880203'
p275
ag3
aa(lp276
S'2018-04-10 23:09:29.984725'
p277
ag3
aa(lp278
S'2018-04-10 23:09:30.088417'
p279
ag3
aa(lp280
S'2018-04-10 23:09:30.181852'
p281
ag3
aa(lp282
S'2018-04-10 23:09:30.278471'
p283
ag3
aa(lp284
S'2018-04-10 23:09:30.387078'
p285
ag3
aa(lp286
S'2018-04-10 23:09:30.481058'
p287
ag3
aa(lp288
S'2018-04-10 23:09:30.586605'
p289
ag3
aa(lp290
S'2018-04-10 23:09:30.679169'
p291
ag3
aa(lp292
S'2018-04-10 23:09:30.788091'
p293
ag3
aa(lp294
S'2018-04-10 23:09:30.881617'
p295
ag3
aa(lp296
S'2018-04-10 23:09:30.985828'
p297
ag3
aa(lp298
S'2018-04-10 23:09:31.079960'
p299
ag3
aa(lp300
S'2018-04-10 23:09:31.187086'
p301
ag3
aa(lp302
S'2018-04-10 23:09:31.284833'
p303
ag3
aa(lp304
S'2018-04-10 23:09:31.378662'
p305
ag3
aa(lp306
S'2018-04-10 23:09:31.486774'
p307
ag3
aa(lp308
S'2018-04-10 23:09:31.582354'
p309
ag3
aa(lp310
S'2018-04-10 23:09:31.679128'
p311
ag3
aa(lp312
S'2018-04-10 23:09:31.784767'
p313
ag3
aa(lp314
S'2018-04-10 23:09:31.879005'
p315
ag3
aa(lp316
S'2018-04-10 23:09:31.986893'
p317
ag3
aa(lp318
S'2018-04-10 23:09:32.084222'
p319
ag3
aa(lp320
S'2018-04-10 23:09:32.191527'
p321
ag3
aa(lp322
S'2018-04-10 23:09:32.278114'
p323
ag3
aa(lp324
S'2018-04-10 23:09:32.386805'
p325
ag3
aa(lp326
S'2018-04-10 23:09:32.484822'
p327
ag3
aa(lp328
S'2018-04-10 23:09:32.582902'
p329
ag3
aa(lp330
S'2018-04-10 23:09:32.677188'
p331
ag3
aa(lp332
S'2018-04-10 23:09:32.781791'
p333
ag3
aa(lp334
S'2018-04-10 23:09:32.887254'
p335
ag3
aa(lp336
S'2018-04-10 23:09:32.984398'
p337
ag3
aa(lp338
S'2018-04-10 23:09:33.079812'
p339
ag3
aa(lp340
S'2018-04-10 23:09:33.188777'
p341
ag3
aa(lp342
S'2018-04-10 23:09:33.284538'
p343
ag3
aa(lp344
S'2018-04-10 23:09:33.380460'
p345
ag3
aa(lp346
S'2018-04-10 23:09:33.486683'
p347
ag3
aa(lp348
S'2018-04-10 23:09:33.583037'
p349
ag3
aa(lp350
S'2018-04-10 23:09:33.680243'
p351
ag3
aa(lp352
S'2018-04-10 23:09:33.787951'
p353
ag3
aa(lp354
S'2018-04-10 23:09:33.884836'
p355
ag3
aa(lp356
S'2018-04-10 23:09:33.979844'
p357
ag3
aa(lp358
S'2018-04-10 23:09:34.087088'
p359
ag3
aa(lp360
S'2018-04-10 23:09:34.184584'
p361
ag3
aa(lp362
S'2018-04-10 23:09:34.282356'
p363
ag3
aa(lp364
S'2018-04-10 23:09:34.387484'
p365
ag3
aa(lp366
S'2018-04-10 23:09:34.485030'
p367
ag3
aa(lp368
S'2018-04-10 23:09:34.582435'
p369
ag3
aa(lp370
S'2018-04-10 23:09:34.678609'
p371
ag3
aa(lp372
S'2018-04-10 23:09:34.788293'
p373
ag3
aa(lp374
S'2018-04-10 23:09:34.883735'
p375
ag3
aa(lp376
S'2018-04-10 23:09:34.979372'
p377
ag3
aa(lp378
S'2018-04-10 23:09:35.082572'
p379
ag3
aa(lp380
S'2018-04-10 23:09:35.186167'
p381
ag3
aa(lp382
S'2018-04-10 23:09:35.281255'
p383
ag3
aa(lp384
S'2018-04-10 23:09:35.386543'
p385
ag3
aa(lp386
S'2018-04-10 23:09:35.483042'
p387
ag3
aa(lp388
S'2018-04-10 23:09:35.583133'
p389
ag3
aa(lp390
S'2018-04-10 23:09:35.678192'
p391
ag3
aa(lp392
S'2018-04-10 23:09:35.781208'
p393
ag3
aa(lp394
S'2018-04-10 23:09:35.878318'
p395
ag3
aa(lp396
S'2018-04-10 23:09:35.984928'
p397
ag3
aa(lp398
S'2018-04-10 23:09:36.086939'
p399
ag3
aa(lp400
S'2018-04-10 23:09:36.191298'
p401
ag3
aa(lp402
S'2018-04-10 23:09:36.285963'
p403
ag3
aa(lp404
S'2018-04-10 23:09:36.381609'
p405
ag3
aa(lp406
S'2018-04-10 23:09:36.484408'
p407
ag3
aa(lp408
S'2018-04-10 23:09:36.577639'
p409
ag3
aa(lp410
S'2018-04-10 23:09:36.682141'
p411
ag3
aa(lp412
S'2018-04-10 23:09:36.788961'
p413
ag3
aa(lp414
S'2018-04-10 23:09:36.885856'
p415
ag3
aa(lp416
S'2018-04-10 23:09:36.982433'
p417
ag3
aa(lp418
S'2018-04-10 23:09:37.086901'
p419
ag3
aa(lp420
S'2018-04-10 23:09:37.183248'
p421
ag3
aa(lp422
S'2018-04-10 23:09:37.280432'
p423
ag3
aa(lp424
S'2018-04-10 23:09:37.386901'
p425
ag3
aa(lp426
S'2018-04-10 23:09:37.482606'
p427
ag3
aa(lp428
S'2018-04-10 23:09:37.588026'
p429
ag3
aa(lp430
S'2018-04-10 23:09:37.682049'
p431
ag3
aa(lp432
S'2018-04-10 23:09:37.779087'
p433
ag3
aa(lp434
S'2018-04-10 23:09:37.884198'
p435
ag3
aa(lp436
S'2018-04-10 23:09:37.979642'
p437
ag3
aa(lp438
S'2018-04-10 23:09:38.087286'
p439
ag3
aa(lp440
S'2018-04-10 23:09:38.183312'
p441
ag3
aa(lp442
S'2018-04-10 23:09:38.280515'
p443
ag3
aa(lp444
S'2018-04-10 23:09:38.385405'
p445
ag3
aa(lp446
S'2018-04-10 23:09:38.479550'
p447
ag3
aa(lp448
S'2018-04-10 23:09:38.587551'
p449
ag3
aa(lp450
S'2018-04-10 23:09:38.683767'
p451
ag3
aa(lp452
S'2018-04-10 23:09:38.781248'
p453
ag3
aa(lp454
S'2018-04-10 23:09:38.886949'
p455
ag3
aa(lp456
S'2018-04-10 23:09:38.983461'
p457
ag3
aa(lp458
S'2018-04-10 23:09:39.080769'
p459
ag3
aa(lp460
S'2018-04-10 23:09:39.188352'
p461
ag3
aa(lp462
S'2018-04-10 23:09:39.286777'
p463
ag3
aa(lp464
S'2018-04-10 23:09:39.384607'
p465
ag3
aa(lp466
S'2018-04-10 23:09:39.479666'
p467
ag3
aa(lp468
S'2018-04-10 23:09:39.588965'
p469
ag3
aa(lp470
S'2018-04-10 23:09:39.686065'
p471
ag3
aa(lp472
S'2018-04-10 23:09:39.783905'
p473
ag3
aa(lp474
S'2018-04-10 23:09:39.879813'
p475
ag3
aa(lp476
S'2018-04-10 23:09:39.983965'
p477
ag3
aa(lp478
S'2018-04-10 23:09:40.077158'
p479
ag3
aa(lp480
S'2018-04-10 23:09:40.182026'
p481
ag3
aa(lp482
S'2018-04-10 23:09:40.280073'
p483
ag3
aa(lp484
S'2018-04-10 23:09:40.387710'
p485
ag3
aa(lp486
S'2018-04-10 23:09:40.485210'
p487
ag3
aa(lp488
S'2018-04-10 23:09:40.578876'
p489
ag3
aa(lp490
S'2018-04-10 23:09:40.687545'
p491
ag3
aa(lp492
S'2018-04-10 23:09:40.784185'
p493
ag3
aa(lp494
S'2018-04-10 23:09:40.881940'
p495
ag3
aa(lp496
S'2018-04-10 23:09:40.978664'
p497
ag3
aa(lp498
S'2018-04-10 23:09:41.086398'
p499
ag3
aa(lp500
S'2018-04-10 23:09:41.184723'
p501
ag3
aa(lp502
S'2018-04-10 23:09:41.281774'
p503
ag3
aa(lp504
S'2018-04-10 23:09:41.379515'
p505
ag3
aa(lp506
S'2018-04-10 23:09:41.485091'
p507
ag3
aa(lp508
S'2018-04-10 23:09:41.583351'
p509
ag3
aa(lp510
S'2018-04-10 23:09:41.679742'
p511
ag3
aa(lp512
S'2018-04-10 23:09:41.778146'
p513
ag3
aa(lp514
S'2018-04-10 23:09:41.885836'
p515
ag3
aa(lp516
S'2018-04-10 23:09:41.982392'
p517
ag3
aa(lp518
S'2018-04-10 23:09:42.078783'
p519
ag3
aa(lp520
S'2018-04-10 23:09:42.189083'
p521
ag3
aa(lp522
S'2018-04-10 23:09:42.284410'
p523
ag3
aa(lp524
S'2018-04-10 23:09:42.381331'
p525
ag3
aa(lp526
S'2018-04-10 23:09:42.478289'
p527
ag3
aa(lp528
S'2018-04-10 23:09:42.584128'
p529
ag3
aa(lp530
S'2018-04-10 23:09:42.679760'
p531
ag3
aa(lp532
S'2018-04-10 23:09:42.776911'
p533
ag3
aa(lp534
S'2018-04-10 23:09:42.883390'
p535
ag3
aa(lp536
S'2018-04-10 23:09:42.977325'
p537
ag3
aa(lp538
S'2018-04-10 23:09:43.083475'
p539
ag3
aa(lp540
S'2018-04-10 23:09:43.188455'
p541
ag3
aa(lp542
S'2018-04-10 23:09:43.286510'
p543
ag3
aa(lp544
S'2018-04-10 23:09:43.382818'
p545
ag3
aa(lp546
S'2018-04-10 23:09:43.479228'
p547
ag3
aa(lp548
S'2018-04-10 23:09:43.586583'
p549
ag3
aa(lp550
S'2018-04-10 23:09:43.681326'
p551
ag3
aa(lp552
S'2018-04-10 23:09:43.777862'
p553
ag3
aa(lp554
S'2018-04-10 23:09:43.886134'
p555
ag3
aa(lp556
S'2018-04-10 23:09:43.981922'
p557
ag3
aa(lp558
S'2018-04-10 23:09:44.076453'
p559
ag3
aa(lp560
S'2018-04-10 23:09:44.184893'
p561
ag3
aa(lp562
S'2018-04-10 23:09:44.281043'
p563
ag3
aa(lp564
S'2018-04-10 23:09:44.385932'
p565
ag3
aa(lp566
S'2018-04-10 23:09:44.482250'
p567
ag3
aa(lp568
S'2018-04-10 23:09:44.578552'
p569
ag3
aa(lp570
S'2018-04-10 23:09:44.686289'
p571
ag3
aa(lp572
S'2018-04-10 23:09:44.780309'
p573
ag3
aa(lp574
S'2018-04-10 23:09:44.886234'
p575
ag3
aa(lp576
S'2018-04-10 23:09:44.982647'
p577
ag3
aa(lp578
S'2018-04-10 23:09:45.079531'
p579
ag3
aa(lp580
S'2018-04-10 23:09:45.185743'
p581
ag3
aa(lp582
S'2018-04-10 23:09:45.282133'
p583
ag3
aa(lp584
S'2018-04-10 23:09:45.379826'
p585
ag3
aa(lp586
S'2018-04-10 23:09:45.484844'
p587
ag3
aa(lp588
S'2018-04-10 23:09:45.582191'
p589
ag3
aa(lp590
S'2018-04-10 23:09:45.679787'
p591
ag3
aa(lp592
S'2018-04-10 23:09:45.788193'
p593
ag3
aa(lp594
S'2018-04-10 23:09:45.885132'
p595
ag3
aa(lp596
S'2018-04-10 23:09:45.981471'
p597
ag3
aa(lp598
S'2018-04-10 23:09:46.077551'
p599
ag3
aa(lp600
S'2018-04-10 23:09:46.182424'
p601
ag3
aa(lp602
S'2018-04-10 23:09:46.277264'
p603
ag3
aa(lp604
S'2018-04-10 23:09:46.380811'
p605
ag3
aa(lp606
S'2018-04-10 23:09:46.477658'
p607
ag3
aa(lp608
S'2018-04-10 23:09:46.586394'
p609
ag3
aa(lp610
S'2018-04-10 23:09:46.685100'
p611
ag3
aa(lp612
S'2018-04-10 23:09:46.782131'
p613
ag3
aa(lp614
S'2018-04-10 23:09:46.876760'
p615
ag3
aa(lp616
S'2018-04-10 23:09:46.982885'
p617
ag3
aa(lp618
S'2018-04-10 23:09:47.080398'
p619
ag3
aa(lp620
S'2018-04-10 23:09:47.185415'
p621
ag3
aa(lp622
S'2018-04-10 23:09:47.284121'
p623
ag3
aa(lp624
S'2018-04-10 23:09:47.379515'
p625
ag3
aa(lp626
S'2018-04-10 23:09:47.484409'
p627
ag3
aa(lp628
S'2018-04-10 23:09:47.581011'
p629
ag3
aa(lp630
S'2018-04-10 23:09:47.686582'
p631
ag3
aa(lp632
S'2018-04-10 23:09:47.782146'
p633
ag3
aa(lp634
S'2018-04-10 23:09:47.878497'
p635
ag3
aa(lp636
S'2018-04-10 23:09:47.985751'
p637
ag3
aa(lp638
S'2018-04-10 23:09:48.084431'
p639
ag3
aa(lp640
S'2018-04-10 23:09:48.180442'
p641
ag3
aa(lp642
S'2018-04-10 23:09:48.278064'
p643
ag3
aa(lp644
S'2018-04-10 23:09:48.384697'
p645
ag3
aa(lp646
S'2018-04-10 23:09:48.482803'
p647
ag3
aa(lp648
S'2018-04-10 23:09:48.579437'
p649
ag3
aa(lp650
S'2018-04-10 23:09:48.676957'
p651
ag3
aa(lp652
S'2018-04-10 23:09:48.784492'
p653
ag3
aa(lp654
S'2018-04-10 23:09:48.879908'
p655
ag3
aa(lp656
S'2018-04-10 23:09:48.979124'
p657
ag3
aa(lp658
S'2018-04-10 23:09:49.075320'
p659
ag3
aa(lp660
S'2018-04-10 23:09:49.184709'
p661
ag3
aa(lp662
S'2018-04-10 23:09:49.280586'
p663
ag3
aa(lp664
S'2018-04-10 23:09:49.377291'
p665
ag3
aa(lp666
S'2018-04-10 23:09:49.484481'
p667
ag3
aa(lp668
S'2018-04-10 23:09:49.583408'
p669
ag3
aa(lp670
S'2018-04-10 23:09:49.681599'
p671
ag3
aa(lp672
S'2018-04-10 23:09:49.778984'
p673
ag3
aa.