(lp0
(lp1
S'2018-05-29 18:31:33.276109'
p2
aS'Hablando'
p3
aa(lp4
S'2018-05-29 18:31:35.680004'
p5
ag3
aa(lp6
S'2018-05-29 18:31:35.763757'
p7
ag3
aa(lp8
S'2018-05-29 18:31:35.861185'
p9
ag3
aa(lp10
S'2018-05-29 18:31:35.956830'
p11
ag3
aa(lp12
S'2018-05-29 18:31:36.064667'
p13
ag3
aa(lp14
S'2018-05-29 18:31:36.160724'
p15
ag3
aa(lp16
S'2018-05-29 18:31:36.256859'
p17
ag3
aa(lp18
S'2018-05-29 18:31:36.365035'
p19
ag3
aa(lp20
S'2018-05-29 18:31:36.461232'
p21
ag3
aa(lp22
S'2018-05-29 18:31:36.561227'
p23
ag3
aa(lp24
S'2018-05-29 18:31:36.656706'
p25
ag3
aa(lp26
S'2018-05-29 18:31:36.763175'
p27
ag3
aa(lp28
S'2018-05-29 18:31:36.859624'
p29
ag3
aa(lp30
S'2018-05-29 18:31:36.956356'
p31
ag3
aa(lp32
S'2018-05-29 18:31:37.063829'
p33
ag3
aa(lp34
S'2018-05-29 18:31:37.161622'
p35
ag3
aa(lp36
S'2018-05-29 18:31:37.260771'
p37
ag3
aa(lp38
S'2018-05-29 18:31:37.355128'
p39
ag3
aa(lp40
S'2018-05-29 18:31:37.462670'
p41
ag3
aa(lp42
S'2018-05-29 18:31:37.558133'
p43
ag3
aa(lp44
S'2018-05-29 18:31:37.664451'
p45
ag3
aa(lp46
S'2018-05-29 18:31:37.758019'
p47
ag3
aa(lp48
S'2018-05-29 18:31:37.861933'
p49
ag3
aa(lp50
S'2018-05-29 18:31:37.957610'
p51
ag3
aa(lp52
S'2018-05-29 18:31:38.064753'
p53
ag3
aa(lp54
S'2018-05-29 18:31:38.161455'
p55
ag3
aa(lp56
S'2018-05-29 18:31:38.260087'
p57
ag3
aa(lp58
S'2018-05-29 18:31:38.355380'
p59
ag3
aa(lp60
S'2018-05-29 18:31:38.464654'
p61
ag3
aa(lp62
S'2018-05-29 18:31:38.562204'
p63
ag3
aa(lp64
S'2018-05-29 18:31:38.657361'
p65
ag3
aa(lp66
S'2018-05-29 18:31:38.762457'
p67
ag3
aa(lp68
S'2018-05-29 18:31:38.856527'
p69
ag3
aa(lp70
S'2018-05-29 18:31:38.961228'
p71
ag3
aa(lp72
S'2018-05-29 18:31:39.066920'
p73
ag3
aa(lp74
S'2018-05-29 18:31:39.164409'
p75
ag3
aa(lp76
S'2018-05-29 18:31:39.259213'
p77
ag3
aa(lp78
S'2018-05-29 18:31:39.364600'
p79
ag3
aa(lp80
S'2018-05-29 18:31:39.463977'
p81
ag3
aa(lp82
S'2018-05-29 18:31:39.561005'
p83
ag3
aa(lp84
S'2018-05-29 18:31:39.657336'
p85
ag3
aa(lp86
S'2018-05-29 18:31:39.762907'
p87
ag3
aa(lp88
S'2018-05-29 18:31:39.859481'
p89
ag3
aa(lp90
S'2018-05-29 18:31:39.958500'
p91
ag3
aa(lp92
S'2018-05-29 18:31:40.066727'
p93
ag3
aa(lp94
S'2018-05-29 18:31:40.165205'
p95
ag3
aa(lp96
S'2018-05-29 18:31:40.259251'
p97
ag3
aa(lp98
S'2018-05-29 18:31:40.365610'
p99
ag3
aa(lp100
S'2018-05-29 18:31:40.462306'
p101
ag3
aa(lp102
S'2018-05-29 18:31:40.556443'
p103
ag3
aa(lp104
S'2018-05-29 18:31:40.663358'
p105
ag3
aa(lp106
S'2018-05-29 18:31:40.757900'
p107
ag3
aa(lp108
S'2018-05-29 18:31:40.862320'
p109
ag3
aa(lp110
S'2018-05-29 18:31:40.957178'
p111
ag3
aa(lp112
S'2018-05-29 18:31:41.065574'
p113
ag3
aa(lp114
S'2018-05-29 18:31:41.162540'
p115
ag3
aa(lp116
S'2018-05-29 18:31:41.260543'
p117
ag3
aa(lp118
S'2018-05-29 18:31:41.357160'
p119
ag3
aa(lp120
S'2018-05-29 18:31:41.465504'
p121
ag3
aa(lp122
S'2018-05-29 18:31:41.561555'
p123
ag3
aa(lp124
S'2018-05-29 18:31:41.657476'
p125
ag3
aa(lp126
S'2018-05-29 18:31:41.764268'
p127
ag3
aa(lp128
S'2018-05-29 18:31:41.860231'
p129
ag3
aa(lp130
S'2018-05-29 18:31:41.966318'
p131
ag3
aa(lp132
S'2018-05-29 18:31:42.065317'
p133
ag3
aa(lp134
S'2018-05-29 18:31:42.161112'
p135
ag3
aa(lp136
S'2018-05-29 18:31:42.257666'
p137
ag3
aa(lp138
S'2018-05-29 18:31:42.362715'
p139
ag3
aa(lp140
S'2018-05-29 18:31:42.460941'
p141
ag3
aa(lp142
S'2018-05-29 18:31:42.558556'
p143
ag3
aa(lp144
S'2018-05-29 18:31:42.657217'
p145
ag3
aa(lp146
S'2018-05-29 18:31:42.764518'
p147
ag3
aa(lp148
S'2018-05-29 18:31:42.859523'
p149
ag3
aa(lp150
S'2018-05-29 18:31:42.956854'
p151
ag3
aa(lp152
S'2018-05-29 18:31:43.062665'
p153
ag3
aa(lp154
S'2018-05-29 18:31:43.162507'
p155
ag3
aa(lp156
S'2018-05-29 18:31:43.257056'
p157
ag3
aa(lp158
S'2018-05-29 18:31:43.365160'
p159
ag3
aa(lp160
S'2018-05-29 18:31:43.463657'
p161
ag3
aa(lp162
S'2018-05-29 18:31:43.562148'
p163
ag3
aa(lp164
S'2018-05-29 18:31:43.658877'
p165
ag3
aa(lp166
S'2018-05-29 18:31:43.765541'
p167
ag3
aa(lp168
S'2018-05-29 18:31:43.864518'
p169
ag3
aa(lp170
S'2018-05-29 18:31:43.962490'
p171
ag3
aa(lp172
S'2018-05-29 18:31:44.060463'
p173
ag3
aa(lp174
S'2018-05-29 18:31:44.157456'
p175
ag3
aa(lp176
S'2018-05-29 18:31:44.264995'
p177
ag3
aa(lp178
S'2018-05-29 18:31:44.361695'
p179
ag3
aa(lp180
S'2018-05-29 18:31:44.461134'
p181
ag3
aa(lp182
S'2018-05-29 18:31:44.560063'
p183
ag3
aa(lp184
S'2018-05-29 18:31:44.664509'
p185
ag3
aa(lp186
S'2018-05-29 18:31:44.762465'
p187
ag3
aa(lp188
S'2018-05-29 18:31:44.858351'
p189
ag3
aa(lp190
S'2018-05-29 18:31:44.957376'
p191
ag3
aa(lp192
S'2018-05-29 18:31:45.055392'
p193
ag3
aa(lp194
S'2018-05-29 18:31:45.161367'
p195
ag3
aa(lp196
S'2018-05-29 18:31:45.258084'
p197
ag3
aa(lp198
S'2018-05-29 18:31:45.355832'
p199
ag3
aa(lp200
S'2018-05-29 18:31:45.464133'
p201
ag3
aa(lp202
S'2018-05-29 18:31:45.559060'
p203
ag3
aa(lp204
S'2018-05-29 18:31:45.665480'
p205
ag3
aa(lp206
S'2018-05-29 18:31:45.760880'
p207
ag3
aa(lp208
S'2018-05-29 18:31:45.857651'
p209
ag3
aa(lp210
S'2018-05-29 18:31:45.955668'
p211
ag3
aa(lp212
S'2018-05-29 18:31:46.063115'
p213
ag3
aa(lp214
S'2018-05-29 18:31:46.159964'
p215
ag3
aa(lp216
S'2018-05-29 18:31:46.256016'
p217
ag3
aa(lp218
S'2018-05-29 18:31:46.362960'
p219
ag3
aa(lp220
S'2018-05-29 18:31:46.460916'
p221
ag3
aa(lp222
S'2018-05-29 18:31:46.559881'
p223
ag3
aa(lp224
S'2018-05-29 18:31:46.657464'
p225
ag3
aa(lp226
S'2018-05-29 18:31:46.754862'
p227
ag3
aa(lp228
S'2018-05-29 18:31:46.865480'
p229
ag3
aa(lp230
S'2018-05-29 18:31:46.963882'
p231
ag3
aa(lp232
S'2018-05-29 18:31:47.062140'
p233
ag3
aa(lp234
S'2018-05-29 18:31:47.160342'
p235
ag3
aa(lp236
S'2018-05-29 18:31:47.256480'
p237
ag3
aa(lp238
S'2018-05-29 18:31:47.363598'
p239
ag3
aa(lp240
S'2018-05-29 18:31:47.462639'
p241
ag3
aa(lp242
S'2018-05-29 18:31:47.562334'
p243
ag3
aa(lp244
S'2018-05-29 18:31:47.659509'
p245
ag3
aa(lp246
S'2018-05-29 18:31:47.757025'
p247
ag3
aa(lp248
S'2018-05-29 18:31:47.862774'
p249
ag3
aa(lp250
S'2018-05-29 18:31:47.959067'
p251
ag3
aa(lp252
S'2018-05-29 18:31:48.065269'
p253
ag3
aa(lp254
S'2018-05-29 18:31:48.163206'
p255
ag3
aa(lp256
S'2018-05-29 18:31:48.259388'
p257
ag3
aa(lp258
S'2018-05-29 18:31:48.354596'
p259
ag3
aa(lp260
S'2018-05-29 18:31:48.463092'
p261
ag3
aa(lp262
S'2018-05-29 18:31:48.559332'
p263
ag3
aa(lp264
S'2018-05-29 18:31:48.656596'
p265
ag3
aa(lp266
S'2018-05-29 18:31:48.763474'
p267
ag3
aa(lp268
S'2018-05-29 18:31:48.859010'
p269
ag3
aa(lp270
S'2018-05-29 18:31:48.958420'
p271
ag3
aa(lp272
S'2018-05-29 18:31:49.064123'
p273
ag3
aa(lp274
S'2018-05-29 18:31:49.161750'
p275
ag3
aa(lp276
S'2018-05-29 18:31:49.258083'
p277
ag3
aa(lp278
S'2018-05-29 18:31:49.365052'
p279
ag3
aa(lp280
S'2018-05-29 18:31:49.463893'
p281
ag3
aa(lp282
S'2018-05-29 18:31:49.562393'
p283
ag3
aa(lp284
S'2018-05-29 18:31:49.659270'
p285
ag3
aa(lp286
S'2018-05-29 18:31:49.754754'
p287
ag3
aa(lp288
S'2018-05-29 18:31:49.863205'
p289
ag3
aa(lp290
S'2018-05-29 18:31:49.960321'
p291
ag3
aa(lp292
S'2018-05-29 18:31:50.056441'
p293
ag3
aa(lp294
S'2018-05-29 18:31:50.154755'
p295
ag3
aa(lp296
S'2018-05-29 18:31:50.262824'
p297
ag3
aa(lp298
S'2018-05-29 18:31:50.361624'
p299
ag3
aa(lp300
S'2018-05-29 18:31:50.459291'
p301
ag3
aa(lp302
S'2018-05-29 18:31:50.566633'
p303
ag3
aa(lp304
S'2018-05-29 18:31:50.664099'
p305
ag3
aa(lp306
S'2018-05-29 18:31:50.761206'
p307
ag3
aa(lp308
S'2018-05-29 18:31:50.860344'
p309
ag3
aa(lp310
S'2018-05-29 18:31:50.956435'
p311
ag3
aa(lp312
S'2018-05-29 18:31:51.064717'
p313
ag3
aa(lp314
S'2018-05-29 18:31:51.163070'
p315
ag3
aa(lp316
S'2018-05-29 18:31:51.257439'
p317
ag3
aa(lp318
S'2018-05-29 18:31:51.362699'
p319
ag3
aa(lp320
S'2018-05-29 18:31:51.461356'
p321
ag3
aa(lp322
S'2018-05-29 18:31:51.558516'
p323
ag3
aa(lp324
S'2018-05-29 18:31:51.657162'
p325
ag3
aa(lp326
S'2018-05-29 18:31:51.763403'
p327
ag3
aa(lp328
S'2018-05-29 18:31:51.862075'
p329
ag3
aa(lp330
S'2018-05-29 18:31:51.962247'
p331
ag3
aa(lp332
S'2018-05-29 18:31:52.061371'
p333
ag3
aa(lp334
S'2018-05-29 18:31:52.159764'
p335
ag3
aa(lp336
S'2018-05-29 18:31:52.259255'
p337
ag3
aa(lp338
S'2018-05-29 18:31:52.358033'
p339
ag3
aa(lp340
S'2018-05-29 18:31:52.457405'
p341
ag3
aa(lp342
S'2018-05-29 18:31:52.554897'
p343
ag3
aa(lp344
S'2018-05-29 18:31:52.663660'
p345
ag3
aa(lp346
S'2018-05-29 18:31:52.761844'
p347
ag3
aa(lp348
S'2018-05-29 18:31:52.859547'
p349
ag3
aa(lp350
S'2018-05-29 18:31:52.957424'
p351
ag3
aa(lp352
S'2018-05-29 18:31:53.054250'
p353
ag3
aa(lp354
S'2018-05-29 18:31:53.163568'
p355
ag3
aa(lp356
S'2018-05-29 18:31:53.260584'
p357
ag3
aa(lp358
S'2018-05-29 18:31:53.357825'
p359
ag3
aa(lp360
S'2018-05-29 18:31:53.455608'
p361
ag3
aa(lp362
S'2018-05-29 18:31:53.564164'
p363
ag3
aa(lp364
S'2018-05-29 18:31:53.660279'
p365
ag3
aa(lp366
S'2018-05-29 18:31:53.758237'
p367
ag3
aa(lp368
S'2018-05-29 18:31:53.857026'
p369
ag3
aa(lp370
S'2018-05-29 18:31:53.952719'
p371
ag3
aa(lp372
S'2018-05-29 18:31:54.062002'
p373
ag3
aa(lp374
S'2018-05-29 18:31:54.161488'
p375
ag3
aa(lp376
S'2018-05-29 18:31:54.257316'
p377
ag3
aa(lp378
S'2018-05-29 18:31:54.353062'
p379
ag3
aa(lp380
S'2018-05-29 18:31:54.461275'
p381
ag3
aa(lp382
S'2018-05-29 18:31:54.559016'
p383
ag3
aa(lp384
S'2018-05-29 18:31:54.657287'
p385
ag3
aa(lp386
S'2018-05-29 18:31:54.754747'
p387
ag3
aa(lp388
S'2018-05-29 18:31:54.862217'
p389
ag3
aa(lp390
S'2018-05-29 18:31:54.957830'
p391
ag3
aa(lp392
S'2018-05-29 18:31:55.056266'
p393
ag3
aa(lp394
S'2018-05-29 18:31:55.153842'
p395
ag3
aa(lp396
S'2018-05-29 18:31:55.262304'
p397
ag3
aa(lp398
S'2018-05-29 18:31:55.358855'
p399
ag3
aa(lp400
S'2018-05-29 18:31:55.458483'
p401
ag3
aa(lp402
S'2018-05-29 18:31:55.555305'
p403
ag3
aa(lp404
S'2018-05-29 18:31:55.664409'
p405
ag3
aa(lp406
S'2018-05-29 18:31:55.759700'
p407
ag3
aa(lp408
S'2018-05-29 18:31:55.853957'
p409
ag3
aa(lp410
S'2018-05-29 18:31:55.961112'
p411
ag3
aa(lp412
S'2018-05-29 18:31:56.059170'
p413
ag3
aa(lp414
S'2018-05-29 18:31:56.155405'
p415
ag3
aa(lp416
S'2018-05-29 18:31:56.262807'
p417
ag3
aa(lp418
S'2018-05-29 18:31:56.361573'
p419
ag3
aa(lp420
S'2018-05-29 18:31:56.460459'
p421
ag3
aa(lp422
S'2018-05-29 18:31:56.557710'
p423
ag3
aa(lp424
S'2018-05-29 18:31:56.656018'
p425
ag3
aa(lp426
S'2018-05-29 18:31:56.754538'
p427
ag3
aa(lp428
S'2018-05-29 18:31:56.861569'
p429
ag3
aa(lp430
S'2018-05-29 18:31:56.956430'
p431
ag3
aa(lp432
S'2018-05-29 18:31:57.063849'
p433
ag3
aa(lp434
S'2018-05-29 18:31:57.161585'
p435
ag3
aa(lp436
S'2018-05-29 18:31:57.258370'
p437
ag3
aa(lp438
S'2018-05-29 18:31:57.354348'
p439
ag3
aa(lp440
S'2018-05-29 18:31:57.463992'
p441
ag3
aa(lp442
S'2018-05-29 18:31:57.560305'
p443
ag3
aa(lp444
S'2018-05-29 18:31:57.657578'
p445
ag3
aa(lp446
S'2018-05-29 18:31:57.754891'
p447
ag3
aa(lp448
S'2018-05-29 18:31:57.861017'
p449
ag3
aa(lp450
S'2018-05-29 18:31:57.960371'
p451
ag3
aa(lp452
S'2018-05-29 18:31:58.058938'
p453
ag3
aa(lp454
S'2018-05-29 18:31:58.156890'
p455
ag3
aa(lp456
S'2018-05-29 18:31:58.253216'
p457
ag3
aa(lp458
S'2018-05-29 18:31:58.361717'
p459
ag3
aa(lp460
S'2018-05-29 18:31:58.456693'
p461
ag3
aa(lp462
S'2018-05-29 18:31:58.555868'
p463
ag3
aa(lp464
S'2018-05-29 18:31:58.663157'
p465
ag3
aa(lp466
S'2018-05-29 18:31:58.760462'
p467
ag3
aa(lp468
S'2018-05-29 18:31:58.858163'
p469
ag3
aa(lp470
S'2018-05-29 18:31:58.956700'
p471
ag3
aa(lp472
S'2018-05-29 18:31:59.063951'
p473
ag3
aa(lp474
S'2018-05-29 18:31:59.160491'
p475
ag3
aa(lp476
S'2018-05-29 18:31:59.255986'
p477
ag3
aa(lp478
S'2018-05-29 18:31:59.363598'
p479
ag3
aa(lp480
S'2018-05-29 18:31:59.462130'
p481
ag3
aa(lp482
S'2018-05-29 18:31:59.560972'
p483
ag3
aa(lp484
S'2018-05-29 18:31:59.657189'
p485
ag3
aa(lp486
S'2018-05-29 18:31:59.754756'
p487
ag3
aa(lp488
S'2018-05-29 18:31:59.865088'
p489
ag3
aa(lp490
S'2018-05-29 18:31:59.963624'
p491
ag3
aa(lp492
S'2018-05-29 18:32:00.062546'
p493
ag3
aa(lp494
S'2018-05-29 18:32:00.157379'
p495
ag3
aa(lp496
S'2018-05-29 18:32:00.254002'
p497
ag3
aa(lp498
S'2018-05-29 18:32:00.362023'
p499
ag3
aa(lp500
S'2018-05-29 18:32:00.462216'
p501
ag3
aa(lp502
S'2018-05-29 18:32:00.560964'
p503
ag3
aa(lp504
S'2018-05-29 18:32:00.659233'
p505
ag3
aa(lp506
S'2018-05-29 18:32:00.753727'
p507
ag3
aa(lp508
S'2018-05-29 18:32:00.862516'
p509
ag3
aa(lp510
S'2018-05-29 18:32:00.958058'
p511
ag3
aa(lp512
S'2018-05-29 18:32:01.065465'
p513
ag3
aa(lp514
S'2018-05-29 18:32:01.161627'
p515
ag3
aa(lp516
S'2018-05-29 18:32:01.255243'
p517
ag3
aa(lp518
S'2018-05-29 18:32:01.362268'
p519
ag3
aa(lp520
S'2018-05-29 18:32:01.457470'
p521
ag3
aa(lp522
S'2018-05-29 18:32:01.555408'
p523
ag3
aa(lp524
S'2018-05-29 18:32:01.663749'
p525
ag3
aa(lp526
S'2018-05-29 18:32:01.757908'
p527
ag3
aa(lp528
S'2018-05-29 18:32:01.856310'
p529
ag3
aa(lp530
S'2018-05-29 18:32:01.955131'
p531
ag3
aa(lp532
S'2018-05-29 18:32:02.054826'
p533
ag3
aa(lp534
S'2018-05-29 18:32:02.162895'
p535
ag3
aa(lp536
S'2018-05-29 18:32:02.261335'
p537
ag3
aa(lp538
S'2018-05-29 18:32:02.358223'
p539
ag3
aa(lp540
S'2018-05-29 18:32:02.463122'
p541
ag3
aa(lp542
S'2018-05-29 18:32:02.561847'
p543
ag3
aa(lp544
S'2018-05-29 18:32:02.660576'
p545
ag3
aa(lp546
S'2018-05-29 18:32:02.756429'
p547
ag3
aa(lp548
S'2018-05-29 18:32:02.853277'
p549
ag3
aa(lp550
S'2018-05-29 18:32:02.960263'
p551
ag3
aa(lp552
S'2018-05-29 18:32:03.059161'
p553
ag3
aa(lp554
S'2018-05-29 18:32:03.156591'
p555
ag3
aa(lp556
S'2018-05-29 18:32:03.254083'
p557
ag3
aa(lp558
S'2018-05-29 18:32:03.362753'
p559
ag3
aa(lp560
S'2018-05-29 18:32:03.460945'
p561
ag3
aa(lp562
S'2018-05-29 18:32:03.557782'
p563
ag3
aa(lp564
S'2018-05-29 18:32:03.653620'
p565
ag3
aa(lp566
S'2018-05-29 18:32:03.762250'
p567
ag3
aa(lp568
S'2018-05-29 18:32:03.858222'
p569
ag3
aa(lp570
S'2018-05-29 18:32:03.955745'
p571
ag3
aa(lp572
S'2018-05-29 18:32:04.063662'
p573
ag3
aa(lp574
S'2018-05-29 18:32:04.161627'
p575
ag3
aa(lp576
S'2018-05-29 18:32:04.257327'
p577
ag3
aa(lp578
S'2018-05-29 18:32:04.354044'
p579
ag3
aa(lp580
S'2018-05-29 18:32:04.459583'
p581
ag3
aa(lp582
S'2018-05-29 18:32:04.558626'
p583
ag3
aa(lp584
S'2018-05-29 18:32:04.656246'
p585
ag3
aa(lp586
S'2018-05-29 18:32:04.752330'
p587
ag3
aa(lp588
S'2018-05-29 18:32:04.861126'
p589
ag3
aa(lp590
S'2018-05-29 18:32:04.959121'
p591
ag3
aa(lp592
S'2018-05-29 18:32:05.054857'
p593
ag3
aa(lp594
S'2018-05-29 18:32:05.162837'
p595
ag3
aa(lp596
S'2018-05-29 18:32:05.260567'
p597
ag3
aa(lp598
S'2018-05-29 18:32:05.357361'
p599
ag3
aa(lp600
S'2018-05-29 18:32:05.455566'
p601
ag3
aa(lp602
S'2018-05-29 18:32:05.562197'
p603
ag3
aa(lp604
S'2018-05-29 18:32:05.659968'
p605
ag3
aa(lp606
S'2018-05-29 18:32:05.757181'
p607
ag3
aa(lp608
S'2018-05-29 18:32:05.855189'
p609
ag3
aa(lp610
S'2018-05-29 18:32:05.961236'
p611
ag3
aa(lp612
S'2018-05-29 18:32:06.059731'
p613
ag3
aa(lp614
S'2018-05-29 18:32:06.156082'
p615
ag3
aa(lp616
S'2018-05-29 18:32:06.261904'
p617
ag3
aa(lp618
S'2018-05-29 18:32:06.358464'
p619
ag3
aa(lp620
S'2018-05-29 18:32:06.459184'
p621
ag3
aa(lp622
S'2018-05-29 18:32:06.556412'
p623
ag3
aa(lp624
S'2018-05-29 18:32:06.661028'
p625
ag3
aa(lp626
S'2018-05-29 18:32:06.756756'
p627
ag3
aa(lp628
S'2018-05-29 18:32:06.853717'
p629
ag3
aa(lp630
S'2018-05-29 18:32:06.952014'
p631
ag3
aa(lp632
S'2018-05-29 18:32:07.059173'
p633
ag3
aa(lp634
S'2018-05-29 18:32:07.154086'
p635
ag3
aa(lp636
S'2018-05-29 18:32:07.261485'
p637
ag3
aa(lp638
S'2018-05-29 18:32:07.357521'
p639
ag3
aa(lp640
S'2018-05-29 18:32:07.518504'
p641
ag3
aa(lp642
S'2018-05-29 18:32:07.560725'
p643
ag3
aa(lp644
S'2018-05-29 18:32:07.658116'
p645
ag3
aa(lp646
S'2018-05-29 18:32:07.754208'
p647
ag3
aa(lp648
S'2018-05-29 18:32:07.956418'
p649
ag3
aa(lp650
S'2018-05-29 18:32:08.063500'
p651
ag3
aa(lp652
S'2018-05-29 18:32:08.161161'
p653
ag3
aa(lp654
S'2018-05-29 18:32:08.259888'
p655
ag3
aa(lp656
S'2018-05-29 18:32:08.357382'
p657
ag3
aa(lp658
S'2018-05-29 18:32:08.455027'
p659
ag3
aa.