(lp0
(lp1
S'2018-04-10 23:12:07.134260'
p2
aS'Cantando'
p3
aa(lp4
S'2018-04-10 23:12:09.623119'
p5
ag3
aa(lp6
S'2018-04-10 23:12:09.718079'
p7
ag3
aa(lp8
S'2018-04-10 23:12:09.814801'
p9
ag3
aa(lp10
S'2018-04-10 23:12:09.921482'
p11
ag3
aa(lp12
S'2018-04-10 23:12:10.018672'
p13
ag3
aa(lp14
S'2018-04-10 23:12:10.123497'
p15
ag3
aa(lp16
S'2018-04-10 23:12:10.218335'
p17
ag3
aa(lp18
S'2018-04-10 23:12:10.314210'
p19
ag3
aa(lp20
S'2018-04-10 23:12:10.419255'
p21
ag3
aa(lp22
S'2018-04-10 23:12:10.516317'
p23
ag3
aa(lp24
S'2018-04-10 23:12:10.614838'
p25
ag3
aa(lp26
S'2018-04-10 23:12:10.720079'
p27
ag3
aa(lp28
S'2018-04-10 23:12:10.816419'
p29
ag3
aa(lp30
S'2018-04-10 23:12:10.913998'
p31
ag3
aa(lp32
S'2018-04-10 23:12:11.021497'
p33
ag3
aa(lp34
S'2018-04-10 23:12:11.117689'
p35
ag3
aa(lp36
S'2018-04-10 23:12:11.214200'
p37
ag3
aa(lp38
S'2018-04-10 23:12:11.321198'
p39
ag3
aa(lp40
S'2018-04-10 23:12:11.418687'
p41
ag3
aa(lp42
S'2018-04-10 23:12:11.514414'
p43
ag3
aa(lp44
S'2018-04-10 23:12:11.621443'
p45
ag3
aa(lp46
S'2018-04-10 23:12:11.714524'
p47
ag3
aa(lp48
S'2018-04-10 23:12:11.821601'
p49
ag3
aa(lp50
S'2018-04-10 23:12:11.919921'
p51
ag3
aa(lp52
S'2018-04-10 23:12:12.015828'
p53
ag3
aa(lp54
S'2018-04-10 23:12:12.113476'
p55
ag3
aa(lp56
S'2018-04-10 23:12:12.218421'
p57
ag3
aa(lp58
S'2018-04-10 23:12:12.314786'
p59
ag3
aa(lp60
S'2018-04-10 23:12:12.421260'
p61
ag3
aa(lp62
S'2018-04-10 23:12:12.517386'
p63
ag3
aa(lp64
S'2018-04-10 23:12:12.613467'
p65
ag3
aa(lp66
S'2018-04-10 23:12:12.718097'
p67
ag3
aa(lp68
S'2018-04-10 23:12:12.815519'
p69
ag3
aa(lp70
S'2018-04-10 23:12:12.923140'
p71
ag3
aa(lp72
S'2018-04-10 23:12:13.018194'
p73
ag3
aa(lp74
S'2018-04-10 23:12:13.115221'
p75
ag3
aa(lp76
S'2018-04-10 23:12:13.221043'
p77
ag3
aa(lp78
S'2018-04-10 23:12:13.317308'
p79
ag3
aa(lp80
S'2018-04-10 23:12:13.422648'
p81
ag3
aa(lp82
S'2018-04-10 23:12:13.517491'
p83
ag3
aa(lp84
S'2018-04-10 23:12:13.612783'
p85
ag3
aa(lp86
S'2018-04-10 23:12:13.717401'
p87
ag3
aa(lp88
S'2018-04-10 23:12:13.821193'
p89
ag3
aa(lp90
S'2018-04-10 23:12:13.914670'
p91
ag3
aa(lp92
S'2018-04-10 23:12:14.020300'
p93
ag3
aa(lp94
S'2018-04-10 23:12:14.114254'
p95
ag3
aa(lp96
S'2018-04-10 23:12:14.218373'
p97
ag3
aa(lp98
S'2018-04-10 23:12:14.314405'
p99
ag3
aa(lp100
S'2018-04-10 23:12:14.418227'
p101
ag3
aa(lp102
S'2018-04-10 23:12:14.511827'
p103
ag3
aa(lp104
S'2018-04-10 23:12:14.618750'
p105
ag3
aa(lp106
S'2018-04-10 23:12:14.712663'
p107
ag3
aa(lp108
S'2018-04-10 23:12:14.816299'
p109
ag3
aa(lp110
S'2018-04-10 23:12:14.911391'
p111
ag3
aa(lp112
S'2018-04-10 23:12:15.015243'
p113
ag3
aa(lp114
S'2018-04-10 23:12:15.120056'
p115
ag3
aa(lp116
S'2018-04-10 23:12:15.216163'
p117
ag3
aa(lp118
S'2018-04-10 23:12:15.312417'
p119
ag3
aa(lp120
S'2018-04-10 23:12:15.418485'
p121
ag3
aa(lp122
S'2018-04-10 23:12:15.526011'
p123
ag3
aa(lp124
S'2018-04-10 23:12:15.621418'
p125
ag3
aa(lp126
S'2018-04-10 23:12:15.717951'
p127
ag3
aa(lp128
S'2018-04-10 23:12:15.813617'
p129
ag3
aa(lp130
S'2018-04-10 23:12:15.919841'
p131
ag3
aa(lp132
S'2018-04-10 23:12:16.016575'
p133
ag3
aa(lp134
S'2018-04-10 23:12:16.113722'
p135
ag3
aa(lp136
S'2018-04-10 23:12:16.220198'
p137
ag3
aa(lp138
S'2018-04-10 23:12:16.316873'
p139
ag3
aa(lp140
S'2018-04-10 23:12:16.416573'
p141
ag3
aa(lp142
S'2018-04-10 23:12:16.521072'
p143
ag3
aa(lp144
S'2018-04-10 23:12:16.617819'
p145
ag3
aa(lp146
S'2018-04-10 23:12:16.713991'
p147
ag3
aa(lp148
S'2018-04-10 23:12:16.820887'
p149
ag3
aa(lp150
S'2018-04-10 23:12:16.916460'
p151
ag3
aa(lp152
S'2018-04-10 23:12:17.021265'
p153
ag3
aa(lp154
S'2018-04-10 23:12:17.117050'
p155
ag3
aa(lp156
S'2018-04-10 23:12:17.221282'
p157
ag3
aa(lp158
S'2018-04-10 23:12:17.318079'
p159
ag3
aa(lp160
S'2018-04-10 23:12:17.411974'
p161
ag3
aa(lp162
S'2018-04-10 23:12:17.518224'
p163
ag3
aa(lp164
S'2018-04-10 23:12:17.613530'
p165
ag3
aa(lp166
S'2018-04-10 23:12:17.721132'
p167
ag3
aa(lp168
S'2018-04-10 23:12:17.818701'
p169
ag3
aa(lp170
S'2018-04-10 23:12:17.916320'
p171
ag3
aa(lp172
S'2018-04-10 23:12:18.020910'
p173
ag3
aa(lp174
S'2018-04-10 23:12:18.117215'
p175
ag3
aa(lp176
S'2018-04-10 23:12:18.211440'
p177
ag3
aa(lp178
S'2018-04-10 23:12:18.318131'
p179
ag3
aa(lp180
S'2018-04-10 23:12:18.414596'
p181
ag3
aa(lp182
S'2018-04-10 23:12:18.522667'
p183
ag3
aa(lp184
S'2018-04-10 23:12:18.618969'
p185
ag3
aa(lp186
S'2018-04-10 23:12:18.714832'
p187
ag3
aa(lp188
S'2018-04-10 23:12:18.813196'
p189
ag3
aa(lp190
S'2018-04-10 23:12:18.918929'
p191
ag3
aa(lp192
S'2018-04-10 23:12:19.016438'
p193
ag3
aa(lp194
S'2018-04-10 23:12:19.111813'
p195
ag3
aa(lp196
S'2018-04-10 23:12:19.218823'
p197
ag3
aa(lp198
S'2018-04-10 23:12:19.314532'
p199
ag3
aa(lp200
S'2018-04-10 23:12:19.420470'
p201
ag3
aa(lp202
S'2018-04-10 23:12:19.518440'
p203
ag3
aa(lp204
S'2018-04-10 23:12:19.617678'
p205
ag3
aa(lp206
S'2018-04-10 23:12:19.713334'
p207
ag3
aa(lp208
S'2018-04-10 23:12:19.810419'
p209
ag3
aa(lp210
S'2018-04-10 23:12:19.918061'
p211
ag3
aa(lp212
S'2018-04-10 23:12:20.015050'
p213
ag3
aa(lp214
S'2018-04-10 23:12:20.112559'
p215
ag3
aa(lp216
S'2018-04-10 23:12:20.217642'
p217
ag3
aa(lp218
S'2018-04-10 23:12:20.314743'
p219
ag3
aa(lp220
S'2018-04-10 23:12:20.421621'
p221
ag3
aa(lp222
S'2018-04-10 23:12:20.517325'
p223
ag3
aa(lp224
S'2018-04-10 23:12:20.612446'
p225
ag3
aa(lp226
S'2018-04-10 23:12:20.719949'
p227
ag3
aa(lp228
S'2018-04-10 23:12:20.816780'
p229
ag3
aa(lp230
S'2018-04-10 23:12:20.913067'
p231
ag3
aa(lp232
S'2018-04-10 23:12:21.018458'
p233
ag3
aa(lp234
S'2018-04-10 23:12:21.115423'
p235
ag3
aa(lp236
S'2018-04-10 23:12:21.219885'
p237
ag3
aa(lp238
S'2018-04-10 23:12:21.317607'
p239
ag3
aa(lp240
S'2018-04-10 23:12:21.412682'
p241
ag3
aa(lp242
S'2018-04-10 23:12:21.520228'
p243
ag3
aa(lp244
S'2018-04-10 23:12:21.614150'
p245
ag3
aa(lp246
S'2018-04-10 23:12:21.711264'
p247
ag3
aa(lp248
S'2018-04-10 23:12:21.817889'
p249
ag3
aa(lp250
S'2018-04-10 23:12:21.913815'
p251
ag3
aa(lp252
S'2018-04-10 23:12:22.011309'
p253
ag3
aa(lp254
S'2018-04-10 23:12:22.117907'
p255
ag3
aa(lp256
S'2018-04-10 23:12:22.213500'
p257
ag3
aa(lp258
S'2018-04-10 23:12:22.318597'
p259
ag3
aa(lp260
S'2018-04-10 23:12:22.416331'
p261
ag3
aa(lp262
S'2018-04-10 23:12:22.512011'
p263
ag3
aa(lp264
S'2018-04-10 23:12:22.620838'
p265
ag3
aa(lp266
S'2018-04-10 23:12:22.715594'
p267
ag3
aa(lp268
S'2018-04-10 23:12:22.813968'
p269
ag3
aa(lp270
S'2018-04-10 23:12:22.911293'
p271
ag3
aa(lp272
S'2018-04-10 23:12:23.018729'
p273
ag3
aa(lp274
S'2018-04-10 23:12:23.116131'
p275
ag3
aa(lp276
S'2018-04-10 23:12:23.212513'
p277
ag3
aa(lp278
S'2018-04-10 23:12:23.310554'
p279
ag3
aa(lp280
S'2018-04-10 23:12:23.417499'
p281
ag3
aa(lp282
S'2018-04-10 23:12:23.513180'
p283
ag3
aa(lp284
S'2018-04-10 23:12:23.621022'
p285
ag3
aa(lp286
S'2018-04-10 23:12:23.717289'
p287
ag3
aa(lp288
S'2018-04-10 23:12:23.812345'
p289
ag3
aa(lp290
S'2018-04-10 23:12:23.918225'
p291
ag3
aa(lp292
S'2018-04-10 23:12:24.015073'
p293
ag3
aa(lp294
S'2018-04-10 23:12:24.112266'
p295
ag3
aa(lp296
S'2018-04-10 23:12:24.218722'
p297
ag3
aa(lp298
S'2018-04-10 23:12:24.315330'
p299
ag3
aa(lp300
S'2018-04-10 23:12:24.410907'
p301
ag3
aa(lp302
S'2018-04-10 23:12:24.519330'
p303
ag3
aa(lp304
S'2018-04-10 23:12:24.617326'
p305
ag3
aa(lp306
S'2018-04-10 23:12:24.715237'
p307
ag3
aa(lp308
S'2018-04-10 23:12:24.813733'
p309
ag3
aa(lp310
S'2018-04-10 23:12:24.909874'
p311
ag3
aa(lp312
S'2018-04-10 23:12:25.018535'
p313
ag3
aa(lp314
S'2018-04-10 23:12:25.114870'
p315
ag3
aa(lp316
S'2018-04-10 23:12:25.211647'
p317
ag3
aa(lp318
S'2018-04-10 23:12:25.315428'
p319
ag3
aa(lp320
S'2018-04-10 23:12:25.413055'
p321
ag3
aa(lp322
S'2018-04-10 23:12:25.518973'
p323
ag3
aa(lp324
S'2018-04-10 23:12:25.615732'
p325
ag3
aa(lp326
S'2018-04-10 23:12:25.711893'
p327
ag3
aa(lp328
S'2018-04-10 23:12:25.818080'
p329
ag3
aa(lp330
S'2018-04-10 23:12:25.915604'
p331
ag3
aa(lp332
S'2018-04-10 23:12:26.012866'
p333
ag3
aa(lp334
S'2018-04-10 23:12:26.118994'
p335
ag3
aa(lp336
S'2018-04-10 23:12:26.217503'
p337
ag3
aa(lp338
S'2018-04-10 23:12:26.315612'
p339
ag3
aa(lp340
S'2018-04-10 23:12:26.412833'
p341
ag3
aa(lp342
S'2018-04-10 23:12:26.519660'
p343
ag3
aa(lp344
S'2018-04-10 23:12:26.617253'
p345
ag3
aa(lp346
S'2018-04-10 23:12:26.713545'
p347
ag3
aa(lp348
S'2018-04-10 23:12:26.811244'
p349
ag3
aa(lp350
S'2018-04-10 23:12:26.917858'
p351
ag3
aa(lp352
S'2018-04-10 23:12:27.015454'
p353
ag3
aa(lp354
S'2018-04-10 23:12:27.112571'
p355
ag3
aa(lp356
S'2018-04-10 23:12:27.219588'
p357
ag3
aa(lp358
S'2018-04-10 23:12:27.316591'
p359
ag3
aa(lp360
S'2018-04-10 23:12:27.413993'
p361
ag3
aa(lp362
S'2018-04-10 23:12:27.522497'
p363
ag3
aa(lp364
S'2018-04-10 23:12:27.617590'
p365
ag3
aa(lp366
S'2018-04-10 23:12:27.713008'
p367
ag3
aa(lp368
S'2018-04-10 23:12:27.820155'
p369
ag3
aa(lp370
S'2018-04-10 23:12:27.918324'
p371
ag3
aa(lp372
S'2018-04-10 23:12:28.015308'
p373
ag3
aa(lp374
S'2018-04-10 23:12:28.112716'
p375
ag3
aa(lp376
S'2018-04-10 23:12:28.218853'
p377
ag3
aa(lp378
S'2018-04-10 23:12:28.315022'
p379
ag3
aa(lp380
S'2018-04-10 23:12:28.413126'
p381
ag3
aa(lp382
S'2018-04-10 23:12:28.509176'
p383
ag3
aa(lp384
S'2018-04-10 23:12:28.617510'
p385
ag3
aa(lp386
S'2018-04-10 23:12:28.713865'
p387
ag3
aa(lp388
S'2018-04-10 23:12:28.810817'
p389
ag3
aa(lp390
S'2018-04-10 23:12:28.916472'
p391
ag3
aa(lp392
S'2018-04-10 23:12:29.015669'
p393
ag3
aa(lp394
S'2018-04-10 23:12:29.112275'
p395
ag3
aa(lp396
S'2018-04-10 23:12:29.218091'
p397
ag3
aa(lp398
S'2018-04-10 23:12:29.315409'
p399
ag3
aa(lp400
S'2018-04-10 23:12:29.411557'
p401
ag3
aa(lp402
S'2018-04-10 23:12:29.518339'
p403
ag3
aa(lp404
S'2018-04-10 23:12:29.615432'
p405
ag3
aa(lp406
S'2018-04-10 23:12:29.710672'
p407
ag3
aa(lp408
S'2018-04-10 23:12:29.818972'
p409
ag3
aa(lp410
S'2018-04-10 23:12:29.912910'
p411
ag3
aa(lp412
S'2018-04-10 23:12:30.016868'
p413
ag3
aa(lp414
S'2018-04-10 23:12:30.112273'
p415
ag3
aa(lp416
S'2018-04-10 23:12:30.219262'
p417
ag3
aa(lp418
S'2018-04-10 23:12:30.317109'
p419
ag3
aa(lp420
S'2018-04-10 23:12:30.412539'
p421
ag3
aa(lp422
S'2018-04-10 23:12:30.522278'
p423
ag3
aa(lp424
S'2018-04-10 23:12:30.618769'
p425
ag3
aa(lp426
S'2018-04-10 23:12:30.715210'
p427
ag3
aa(lp428
S'2018-04-10 23:12:30.810497'
p429
ag3
aa(lp430
S'2018-04-10 23:12:30.917842'
p431
ag3
aa(lp432
S'2018-04-10 23:12:31.014713'
p433
ag3
aa(lp434
S'2018-04-10 23:12:31.111656'
p435
ag3
aa(lp436
S'2018-04-10 23:12:31.218929'
p437
ag3
aa(lp438
S'2018-04-10 23:12:31.313225'
p439
ag3
aa(lp440
S'2018-04-10 23:12:31.418791'
p441
ag3
aa(lp442
S'2018-04-10 23:12:31.514922'
p443
ag3
aa(lp444
S'2018-04-10 23:12:31.611420'
p445
ag3
aa(lp446
S'2018-04-10 23:12:31.718551'
p447
ag3
aa(lp448
S'2018-04-10 23:12:31.816391'
p449
ag3
aa(lp450
S'2018-04-10 23:12:31.912906'
p451
ag3
aa(lp452
S'2018-04-10 23:12:32.009648'
p453
ag3
aa(lp454
S'2018-04-10 23:12:32.117483'
p455
ag3
aa(lp456
S'2018-04-10 23:12:32.212683'
p457
ag3
aa(lp458
S'2018-04-10 23:12:32.310778'
p459
ag3
aa(lp460
S'2018-04-10 23:12:32.417420'
p461
ag3
aa(lp462
S'2018-04-10 23:12:32.514403'
p463
ag3
aa(lp464
S'2018-04-10 23:12:32.612911'
p465
ag3
aa(lp466
S'2018-04-10 23:12:32.719092'
p467
ag3
aa(lp468
S'2018-04-10 23:12:32.816246'
p469
ag3
aa(lp470
S'2018-04-10 23:12:32.912644'
p471
ag3
aa(lp472
S'2018-04-10 23:12:33.019107'
p473
ag3
aa(lp474
S'2018-04-10 23:12:33.115010'
p475
ag3
aa(lp476
S'2018-04-10 23:12:33.212351'
p477
ag3
aa(lp478
S'2018-04-10 23:12:33.316033'
p479
ag3
aa(lp480
S'2018-04-10 23:12:33.413258'
p481
ag3
aa(lp482
S'2018-04-10 23:12:33.520028'
p483
ag3
aa(lp484
S'2018-04-10 23:12:33.617699'
p485
ag3
aa(lp486
S'2018-04-10 23:12:33.712215'
p487
ag3
aa(lp488
S'2018-04-10 23:12:33.818706'
p489
ag3
aa(lp490
S'2018-04-10 23:12:33.913923'
p491
ag3
aa(lp492
S'2018-04-10 23:12:34.010923'
p493
ag3
aa(lp494
S'2018-04-10 23:12:34.117739'
p495
ag3
aa(lp496
S'2018-04-10 23:12:34.214006'
p497
ag3
aa(lp498
S'2018-04-10 23:12:34.311299'
p499
ag3
aa(lp500
S'2018-04-10 23:12:34.418168'
p501
ag3
aa(lp502
S'2018-04-10 23:12:34.517466'
p503
ag3
aa(lp504
S'2018-04-10 23:12:34.615258'
p505
ag3
aa(lp506
S'2018-04-10 23:12:34.709322'
p507
ag3
aa(lp508
S'2018-04-10 23:12:34.815584'
p509
ag3
aa(lp510
S'2018-04-10 23:12:34.910298'
p511
ag3
aa(lp512
S'2018-04-10 23:12:35.015544'
p513
ag3
aa(lp514
S'2018-04-10 23:12:35.112907'
p515
ag3
aa(lp516
S'2018-04-10 23:12:35.218304'
p517
ag3
aa(lp518
S'2018-04-10 23:12:35.311941'
p519
ag3
aa(lp520
S'2018-04-10 23:12:35.418630'
p521
ag3
aa(lp522
S'2018-04-10 23:12:35.512548'
p523
ag3
aa(lp524
S'2018-04-10 23:12:35.617973'
p525
ag3
aa(lp526
S'2018-04-10 23:12:35.712774'
p527
ag3
aa(lp528
S'2018-04-10 23:12:35.818124'
p529
ag3
aa(lp530
S'2018-04-10 23:12:35.913406'
p531
ag3
aa(lp532
S'2018-04-10 23:12:36.020208'
p533
ag3
aa(lp534
S'2018-04-10 23:12:36.115880'
p535
ag3
aa(lp536
S'2018-04-10 23:12:36.213171'
p537
ag3
aa(lp538
S'2018-04-10 23:12:36.316902'
p539
ag3
aa(lp540
S'2018-04-10 23:12:36.413442'
p541
ag3
aa(lp542
S'2018-04-10 23:12:36.518045'
p543
ag3
aa(lp544
S'2018-04-10 23:12:36.613457'
p545
ag3
aa(lp546
S'2018-04-10 23:12:36.718210'
p547
ag3
aa(lp548
S'2018-04-10 23:12:36.815252'
p549
ag3
aa(lp550
S'2018-04-10 23:12:36.908775'
p551
ag3
aa(lp552
S'2018-04-10 23:12:37.015158'
p553
ag3
aa(lp554
S'2018-04-10 23:12:37.113408'
p555
ag3
aa(lp556
S'2018-04-10 23:12:37.210900'
p557
ag3
aa(lp558
S'2018-04-10 23:12:37.317592'
p559
ag3
aa(lp560
S'2018-04-10 23:12:37.412709'
p561
ag3
aa(lp562
S'2018-04-10 23:12:37.518235'
p563
ag3
aa(lp564
S'2018-04-10 23:12:37.614120'
p565
ag3
aa(lp566
S'2018-04-10 23:12:37.711422'
p567
ag3
aa(lp568
S'2018-04-10 23:12:37.816049'
p569
ag3
aa(lp570
S'2018-04-10 23:12:37.912599'
p571
ag3
aa(lp572
S'2018-04-10 23:12:38.017716'
p573
ag3
aa(lp574
S'2018-04-10 23:12:38.114834'
p575
ag3
aa(lp576
S'2018-04-10 23:12:38.210536'
p577
ag3
aa(lp578
S'2018-04-10 23:12:38.315848'
p579
ag3
aa(lp580
S'2018-04-10 23:12:38.413798'
p581
ag3
aa(lp582
S'2018-04-10 23:12:38.509994'
p583
ag3
aa(lp584
S'2018-04-10 23:12:38.616100'
p585
ag3
aa(lp586
S'2018-04-10 23:12:38.711977'
p587
ag3
aa(lp588
S'2018-04-10 23:12:38.809768'
p589
ag3
aa(lp590
S'2018-04-10 23:12:38.915395'
p591
ag3
aa(lp592
S'2018-04-10 23:12:39.012868'
p593
ag3
aa(lp594
S'2018-04-10 23:12:39.110395'
p595
ag3
aa(lp596
S'2018-04-10 23:12:39.216231'
p597
ag3
aa(lp598
S'2018-04-10 23:12:39.311526'
p599
ag3
aa(lp600
S'2018-04-10 23:12:39.418452'
p601
ag3
aa(lp602
S'2018-04-10 23:12:39.513174'
p603
ag3
aa(lp604
S'2018-04-10 23:12:39.610279'
p605
ag3
aa(lp606
S'2018-04-10 23:12:39.715325'
p607
ag3
aa(lp608
S'2018-04-10 23:12:39.811384'
p609
ag3
aa(lp610
S'2018-04-10 23:12:39.909928'
p611
ag3
aa(lp612
S'2018-04-10 23:12:40.015567'
p613
ag3
aa(lp614
S'2018-04-10 23:12:40.112220'
p615
ag3
aa(lp616
S'2018-04-10 23:12:40.218510'
p617
ag3
aa(lp618
S'2018-04-10 23:12:40.315595'
p619
ag3
aa(lp620
S'2018-04-10 23:12:40.410020'
p621
ag3
aa(lp622
S'2018-04-10 23:12:40.516138'
p623
ag3
aa(lp624
S'2018-04-10 23:12:40.615243'
p625
ag3
aa(lp626
S'2018-04-10 23:12:40.708255'
p627
ag3
aa(lp628
S'2018-04-10 23:12:40.815985'
p629
ag3
aa(lp630
S'2018-04-10 23:12:40.912481'
p631
ag3
aa(lp632
S'2018-04-10 23:12:41.018268'
p633
ag3
aa(lp634
S'2018-04-10 23:12:41.114845'
p635
ag3
aa(lp636
S'2018-04-10 23:12:41.210482'
p637
ag3
aa(lp638
S'2018-04-10 23:12:41.317678'
p639
ag3
aa(lp640
S'2018-04-10 23:12:41.413605'
p641
ag3
aa(lp642
S'2018-04-10 23:12:41.509110'
p643
ag3
aa(lp644
S'2018-04-10 23:12:41.613596'
p645
ag3
aa(lp646
S'2018-04-10 23:12:41.710544'
p647
ag3
aa(lp648
S'2018-04-10 23:12:41.816371'
p649
ag3
aa(lp650
S'2018-04-10 23:12:41.914399'
p651
ag3
aa(lp652
S'2018-04-10 23:12:42.010673'
p653
ag3
aa(lp654
S'2018-04-10 23:12:42.117674'
p655
ag3
aa(lp656
S'2018-04-10 23:12:42.214317'
p657
ag3
aa(lp658
S'2018-04-10 23:12:42.310827'
p659
ag3
aa(lp660
S'2018-04-10 23:12:42.416504'
p661
ag3
aa(lp662
S'2018-04-10 23:12:42.511413'
p663
ag3
aa(lp664
S'2018-04-10 23:12:42.616022'
p665
ag3
aa(lp666
S'2018-04-10 23:12:42.714503'
p667
ag3
aa(lp668
S'2018-04-10 23:12:42.814037'
p669
ag3
aa(lp670
S'2018-04-10 23:12:42.909570'
p671
ag3
aa(lp672
S'2018-04-10 23:12:43.015884'
p673
ag3
aa(lp674
S'2018-04-10 23:12:43.113013'
p675
ag3
aa(lp676
S'2018-04-10 23:12:43.208835'
p677
ag3
aa(lp678
S'2018-04-10 23:12:43.316025'
p679
ag3
aa(lp680
S'2018-04-10 23:12:43.411632'
p681
ag3
aa(lp682
S'2018-04-10 23:12:43.517362'
p683
ag3
aa(lp684
S'2018-04-10 23:12:43.614160'
p685
ag3
aa(lp686
S'2018-04-10 23:12:43.712799'
p687
ag3
aa(lp688
S'2018-04-10 23:12:43.808577'
p689
ag3
aa(lp690
S'2018-04-10 23:12:43.917113'
p691
ag3
aa(lp692
S'2018-04-10 23:12:44.015560'
p693
ag3
aa(lp694
S'2018-04-10 23:12:44.108466'
p695
ag3
aa(lp696
S'2018-04-10 23:12:44.216565'
p697
ag3
aa(lp698
S'2018-04-10 23:12:44.312610'
p699
ag3
aa(lp700
S'2018-04-10 23:12:44.410519'
p701
ag3
aa(lp702
S'2018-04-10 23:12:44.515755'
p703
ag3
aa(lp704
S'2018-04-10 23:12:44.611826'
p705
ag3
aa(lp706
S'2018-04-10 23:12:44.718378'
p707
ag3
aa(lp708
S'2018-04-10 23:12:44.814196'
p709
ag3
aa(lp710
S'2018-04-10 23:12:44.911629'
p711
ag3
aa(lp712
S'2018-04-10 23:12:45.017389'
p713
ag3
aa(lp714
S'2018-04-10 23:12:45.113700'
p715
ag3
aa(lp716
S'2018-04-10 23:12:45.210608'
p717
ag3
aa(lp718
S'2018-04-10 23:12:45.317192'
p719
ag3
aa(lp720
S'2018-04-10 23:12:45.413775'
p721
ag3
aa(lp722
S'2018-04-10 23:12:45.518302'
p723
ag3
aa(lp724
S'2018-04-10 23:12:45.612113'
p725
ag3
aa(lp726
S'2018-04-10 23:12:45.707775'
p727
ag3
aa(lp728
S'2018-04-10 23:12:45.815578'
p729
ag3
aa(lp730
S'2018-04-10 23:12:45.914671'
p731
ag3
aa(lp732
S'2018-04-10 23:12:46.011726'
p733
ag3
aa(lp734
S'2018-04-10 23:12:46.110912'
p735
ag3
aa(lp736
S'2018-04-10 23:12:46.217086'
p737
ag3
aa(lp738
S'2018-04-10 23:12:46.314886'
p739
ag3
aa(lp740
S'2018-04-10 23:12:46.412613'
p741
ag3
aa(lp742
S'2018-04-10 23:12:46.510064'
p743
ag3
aa(lp744
S'2018-04-10 23:12:46.615099'
p745
ag3
aa(lp746
S'2018-04-10 23:12:46.712412'
p747
ag3
aa(lp748
S'2018-04-10 23:12:46.815786'
p749
ag3
aa(lp750
S'2018-04-10 23:12:46.910658'
p751
ag3
aa(lp752
S'2018-04-10 23:12:47.018032'
p753
ag3
aa(lp754
S'2018-04-10 23:12:47.114164'
p755
ag3
aa(lp756
S'2018-04-10 23:12:47.210271'
p757
ag3
aa(lp758
S'2018-04-10 23:12:47.316035'
p759
ag3
aa(lp760
S'2018-04-10 23:12:47.413174'
p761
ag3
aa(lp762
S'2018-04-10 23:12:47.509625'
p763
ag3
aa(lp764
S'2018-04-10 23:12:47.617337'
p765
ag3
aa(lp766
S'2018-04-10 23:12:47.713468'
p767
ag3
aa(lp768
S'2018-04-10 23:12:47.811645'
p769
ag3
aa(lp770
S'2018-04-10 23:12:47.909544'
p771
ag3
aa(lp772
S'2018-04-10 23:12:48.015614'
p773
ag3
aa(lp774
S'2018-04-10 23:12:48.112419'
p775
ag3
aa(lp776
S'2018-04-10 23:12:48.208958'
p777
ag3
aa(lp778
S'2018-04-10 23:12:48.315589'
p779
ag3
aa(lp780
S'2018-04-10 23:12:48.410763'
p781
ag3
aa(lp782
S'2018-04-10 23:12:48.517170'
p783
ag3
aa(lp784
S'2018-04-10 23:12:48.613587'
p785
ag3
aa(lp786
S'2018-04-10 23:12:48.709224'
p787
ag3
aa(lp788
S'2018-04-10 23:12:48.816465'
p789
ag3
aa(lp790
S'2018-04-10 23:12:48.912571'
p791
ag3
aa(lp792
S'2018-04-10 23:12:49.017304'
p793
ag3
aa(lp794
S'2018-04-10 23:12:49.114875'
p795
ag3
aa(lp796
S'2018-04-10 23:12:49.218553'
p797
ag3
aa(lp798
S'2018-04-10 23:12:49.316349'
p799
ag3
aa(lp800
S'2018-04-10 23:12:49.413552'
p801
ag3
aa(lp802
S'2018-04-10 23:12:49.508796'
p803
ag3
aa(lp804
S'2018-04-10 23:12:49.617102'
p805
ag3
aa(lp806
S'2018-04-10 23:12:49.712914'
p807
ag3
aa(lp808
S'2018-04-10 23:12:49.808498'
p809
ag3
aa(lp810
S'2018-04-10 23:12:49.915622'
p811
ag3
aa(lp812
S'2018-04-10 23:12:50.010604'
p813
ag3
aa(lp814
S'2018-04-10 23:12:50.116188'
p815
ag3
aa(lp816
S'2018-04-10 23:12:50.210491'
p817
ag3
aa(lp818
S'2018-04-10 23:12:50.316600'
p819
ag3
aa(lp820
S'2018-04-10 23:12:50.414613'
p821
ag3
aa(lp822
S'2018-04-10 23:12:50.510329'
p823
ag3
aa(lp824
S'2018-04-10 23:12:50.617357'
p825
ag3
aa(lp826
S'2018-04-10 23:12:50.714038'
p827
ag3
aa(lp828
S'2018-04-10 23:12:50.807711'
p829
ag3
aa(lp830
S'2018-04-10 23:12:50.915297'
p831
ag3
aa(lp832
S'2018-04-10 23:12:51.012984'
p833
ag3
aa(lp834
S'2018-04-10 23:12:51.116934'
p835
ag3
aa(lp836
S'2018-04-10 23:12:51.211336'
p837
ag3
aa(lp838
S'2018-04-10 23:12:51.310347'
p839
ag3
aa(lp840
S'2018-04-10 23:12:51.418059'
p841
ag3
aa(lp842
S'2018-04-10 23:12:51.515696'
p843
ag3
aa(lp844
S'2018-04-10 23:12:51.610916'
p845
ag3
aa(lp846
S'2018-04-10 23:12:51.709699'
p847
ag3
aa(lp848
S'2018-04-10 23:12:51.816970'
p849
ag3
aa(lp850
S'2018-04-10 23:12:51.914093'
p851
ag3
aa(lp852
S'2018-04-10 23:12:52.011613'
p853
ag3
aa(lp854
S'2018-04-10 23:12:52.117681'
p855
ag3
aa(lp856
S'2018-04-10 23:12:52.216306'
p857
ag3
aa(lp858
S'2018-04-10 23:12:52.313716'
p859
ag3
aa(lp860
S'2018-04-10 23:12:52.411060'
p861
ag3
aa(lp862
S'2018-04-10 23:12:52.517609'
p863
ag3
aa(lp864
S'2018-04-10 23:12:52.612862'
p865
ag3
aa(lp866
S'2018-04-10 23:12:52.709303'
p867
ag3
aa(lp868
S'2018-04-10 23:12:52.814669'
p869
ag3
aa(lp870
S'2018-04-10 23:12:52.907141'
p871
ag3
aa(lp872
S'2018-04-10 23:12:53.011381'
p873
ag3
aa(lp874
S'2018-04-10 23:12:53.117191'
p875
ag3
aa(lp876
S'2018-04-10 23:12:53.212667'
p877
ag3
aa(lp878
S'2018-04-10 23:12:53.308648'
p879
ag3
aa(lp880
S'2018-04-10 23:12:53.413885'
p881
ag3
aa(lp882
S'2018-04-10 23:12:53.509633'
p883
ag3
aa(lp884
S'2018-04-10 23:12:53.616060'
p885
ag3
aa(lp886
S'2018-04-10 23:12:53.712512'
p887
ag3
aa(lp888
S'2018-04-10 23:12:53.817597'
p889
ag3
aa(lp890
S'2018-04-10 23:12:53.914251'
p891
ag3
aa(lp892
S'2018-04-10 23:12:54.009639'
p893
ag3
aa(lp894
S'2018-04-10 23:12:54.117961'
p895
ag3
aa(lp896
S'2018-04-10 23:12:54.213340'
p897
ag3
aa(lp898
S'2018-04-10 23:12:54.309881'
p899
ag3
aa(lp900
S'2018-04-10 23:12:54.416652'
p901
ag3
aa(lp902
S'2018-04-10 23:12:54.521748'
p903
ag3
aa(lp904
S'2018-04-10 23:12:54.617270'
p905
ag3
aa(lp906
S'2018-04-10 23:12:54.714045'
p907
ag3
aa(lp908
S'2018-04-10 23:12:54.812573'
p909
ag3
aa(lp910
S'2018-04-10 23:12:54.911459'
p911
ag3
aa(lp912
S'2018-04-10 23:12:55.015197'
p913
ag3
aa(lp914
S'2018-04-10 23:12:55.109990'
p915
ag3
aa(lp916
S'2018-04-10 23:12:55.216414'
p917
ag3
aa(lp918
S'2018-04-10 23:12:55.311638'
p919
ag3
aa(lp920
S'2018-04-10 23:12:55.408265'
p921
ag3
aa(lp922
S'2018-04-10 23:12:55.514153'
p923
ag3
aa(lp924
S'2018-04-10 23:12:55.609806'
p925
ag3
aa(lp926
S'2018-04-10 23:12:55.717319'
p927
ag3
aa(lp928
S'2018-04-10 23:12:55.813590'
p929
ag3
aa(lp930
S'2018-04-10 23:12:55.909296'
p931
ag3
aa(lp932
S'2018-04-10 23:12:56.014187'
p933
ag3
aa(lp934
S'2018-04-10 23:12:56.108885'
p935
ag3
aa(lp936
S'2018-04-10 23:12:56.211583'
p937
ag3
aa(lp938
S'2018-04-10 23:12:56.315995'
p939
ag3
aa(lp940
S'2018-04-10 23:12:56.410481'
p941
ag3
aa(lp942
S'2018-04-10 23:12:56.515527'
p943
ag3
aa(lp944
S'2018-04-10 23:12:56.609502'
p945
ag3
aa(lp946
S'2018-04-10 23:12:56.714648'
p947
ag3
aa(lp948
S'2018-04-10 23:12:56.810556'
p949
ag3
aa(lp950
S'2018-04-10 23:12:56.914493'
p951
ag3
aa(lp952
S'2018-04-10 23:12:57.008732'
p953
ag3
aa(lp954
S'2018-04-10 23:12:57.111721'
p955
ag3
aa(lp956
S'2018-04-10 23:12:57.214833'
p957
ag3
aa(lp958
S'2018-04-10 23:12:57.308771'
p959
ag3
aa(lp960
S'2018-04-10 23:12:57.415268'
p961
ag3
aa(lp962
S'2018-04-10 23:12:57.519384'
p963
ag3
aa(lp964
S'2018-04-10 23:12:57.613399'
p965
ag3
aa(lp966
S'2018-04-10 23:12:57.707702'
p967
ag3
aa(lp968
S'2018-04-10 23:12:57.812651'
p969
ag3
aa(lp970
S'2018-04-10 23:12:57.909723'
p971
ag3
aa(lp972
S'2018-04-10 23:12:58.014487'
p973
ag3
aa(lp974
S'2018-04-10 23:12:58.110508'
p975
ag3
aa(lp976
S'2018-04-10 23:12:58.217221'
p977
ag3
aa(lp978
S'2018-04-10 23:12:58.314421'
p979
ag3
aa(lp980
S'2018-04-10 23:12:58.410832'
p981
ag3
aa(lp982
S'2018-04-10 23:12:58.516943'
p983
ag3
aa(lp984
S'2018-04-10 23:12:58.612431'
p985
ag3
aa(lp986
S'2018-04-10 23:12:58.716464'
p987
ag3
aa(lp988
S'2018-04-10 23:12:58.811187'
p989
ag3
aa(lp990
S'2018-04-10 23:12:58.906389'
p991
ag3
aa(lp992
S'2018-04-10 23:12:59.012347'
p993
ag3
aa(lp994
S'2018-04-10 23:12:59.110210'
p995
ag3
aa(lp996
S'2018-04-10 23:12:59.208566'
p997
ag3
aa(lp998
S'2018-04-10 23:12:59.314261'
p999
ag3
aa(lp1000
S'2018-04-10 23:12:59.411484'
p1001
ag3
aa(lp1002
S'2018-04-10 23:12:59.509902'
p1003
ag3
aa(lp1004
S'2018-04-10 23:12:59.617236'
p1005
ag3
aa(lp1006
S'2018-04-10 23:12:59.712305'
p1007
ag3
aa(lp1008
S'2018-04-10 23:12:59.808262'
p1009
ag3
aa(lp1010
S'2018-04-10 23:12:59.915066'
p1011
ag3
aa(lp1012
S'2018-04-10 23:13:00.010646'
p1013
ag3
aa(lp1014
S'2018-04-10 23:13:00.107436'
p1015
ag3
aa(lp1016
S'2018-04-10 23:13:00.213967'
p1017
ag3
aa(lp1018
S'2018-04-10 23:13:00.307701'
p1019
ag3
aa(lp1020
S'2018-04-10 23:13:00.412175'
p1021
ag3
aa(lp1022
S'2018-04-10 23:13:00.515582'
p1023
ag3
aa(lp1024
S'2018-04-10 23:13:00.608494'
p1025
ag3
aa(lp1026
S'2018-04-10 23:13:00.714024'
p1027
ag3
aa(lp1028
S'2018-04-10 23:13:00.807396'
p1029
ag3
aa(lp1030
S'2018-04-10 23:13:00.911031'
p1031
ag3
aa(lp1032
S'2018-04-10 23:13:01.013508'
p1033
ag3
aa(lp1034
S'2018-04-10 23:13:01.105784'
p1035
ag3
aa(lp1036
S'2018-04-10 23:13:01.210517'
p1037
ag3
aa(lp1038
S'2018-04-10 23:13:01.307514'
p1039
ag3
aa(lp1040
S'2018-04-10 23:13:01.413624'
p1041
ag3
aa(lp1042
S'2018-04-10 23:13:01.510043'
p1043
ag3
aa(lp1044
S'2018-04-10 23:13:01.617463'
p1045
ag3
aa(lp1046
S'2018-04-10 23:13:01.711590'
p1047
ag3
aa(lp1048
S'2018-04-10 23:13:01.808156'
p1049
ag3
aa(lp1050
S'2018-04-10 23:13:01.914946'
p1051
ag3
aa(lp1052
S'2018-04-10 23:13:02.010168'
p1053
ag3
aa(lp1054
S'2018-04-10 23:13:02.106837'
p1055
ag3
aa(lp1056
S'2018-04-10 23:13:02.211735'
p1057
ag3
aa(lp1058
S'2018-04-10 23:13:02.315934'
p1059
ag3
aa(lp1060
S'2018-04-10 23:13:02.410333'
p1061
ag3
aa(lp1062
S'2018-04-10 23:13:02.516145'
p1063
ag3
aa(lp1064
S'2018-04-10 23:13:02.612949'
p1065
ag3
aa(lp1066
S'2018-04-10 23:13:02.709693'
p1067
ag3
aa(lp1068
S'2018-04-10 23:13:02.813158'
p1069
ag3
aa(lp1070
S'2018-04-10 23:13:02.908161'
p1071
ag3
aa(lp1072
S'2018-04-10 23:13:03.012681'
p1073
ag3
aa(lp1074
S'2018-04-10 23:13:03.109672'
p1075
ag3
aa(lp1076
S'2018-04-10 23:13:03.216009'
p1077
ag3
aa(lp1078
S'2018-04-10 23:13:03.312751'
p1079
ag3
aa(lp1080
S'2018-04-10 23:13:03.408317'
p1081
ag3
aa(lp1082
S'2018-04-10 23:13:03.514623'
p1083
ag3
aa(lp1084
S'2018-04-10 23:13:03.609816'
p1085
ag3
aa(lp1086
S'2018-04-10 23:13:03.714795'
p1087
ag3
aa(lp1088
S'2018-04-10 23:13:03.809599'
p1089
ag3
aa(lp1090
S'2018-04-10 23:13:03.915561'
p1091
ag3
aa(lp1092
S'2018-04-10 23:13:04.014554'
p1093
ag3
aa(lp1094
S'2018-04-10 23:13:04.111338'
p1095
ag3
aa(lp1096
S'2018-04-10 23:13:04.206797'
p1097
ag3
aa(lp1098
S'2018-04-10 23:13:04.312283'
p1099
ag3
aa(lp1100
S'2018-04-10 23:13:04.408388'
p1101
ag3
aa(lp1102
S'2018-04-10 23:13:04.514707'
p1103
ag3
aa(lp1104
S'2018-04-10 23:13:04.612954'
p1105
ag3
aa(lp1106
S'2018-04-10 23:13:04.709092'
p1107
ag3
aa(lp1108
S'2018-04-10 23:13:04.815788'
p1109
ag3
aa(lp1110
S'2018-04-10 23:13:04.912939'
p1111
ag3
aa(lp1112
S'2018-04-10 23:13:05.010302'
p1113
ag3
aa(lp1114
S'2018-04-10 23:13:05.106339'
p1115
ag3
aa(lp1116
S'2018-04-10 23:13:05.215245'
p1117
ag3
aa(lp1118
S'2018-04-10 23:13:05.311524'
p1119
ag3
aa(lp1120
S'2018-04-10 23:13:05.409369'
p1121
ag3
aa(lp1122
S'2018-04-10 23:13:05.514992'
p1123
ag3
aa(lp1124
S'2018-04-10 23:13:05.612048'
p1125
ag3
aa(lp1126
S'2018-04-10 23:13:05.707157'
p1127
ag3
aa(lp1128
S'2018-04-10 23:13:05.812308'
p1129
ag3
aa(lp1130
S'2018-04-10 23:13:05.911195'
p1131
ag3
aa(lp1132
S'2018-04-10 23:13:06.008882'
p1133
ag3
aa(lp1134
S'2018-04-10 23:13:06.114308'
p1135
ag3
aa(lp1136
S'2018-04-10 23:13:06.208951'
p1137
ag3
aa(lp1138
S'2018-04-10 23:13:06.306796'
p1139
ag3
aa(lp1140
S'2018-04-10 23:13:06.413963'
p1141
ag3
aa(lp1142
S'2018-04-10 23:13:06.520870'
p1143
ag3
aa(lp1144
S'2018-04-10 23:13:06.606804'
p1145
ag3
aa(lp1146
S'2018-04-10 23:13:06.714083'
p1147
ag3
aa(lp1148
S'2018-04-10 23:13:06.810642'
p1149
ag3
aa(lp1150
S'2018-04-10 23:13:06.905186'
p1151
ag3
aa(lp1152
S'2018-04-10 23:13:07.012419'
p1153
ag3
aa(lp1154
S'2018-04-10 23:13:07.108768'
p1155
ag3
aa(lp1156
S'2018-04-10 23:13:07.214166'
p1157
ag3
aa(lp1158
S'2018-04-10 23:13:07.310787'
p1159
ag3
aa(lp1160
S'2018-04-10 23:13:07.406382'
p1161
ag3
aa(lp1162
S'2018-04-10 23:13:07.514661'
p1163
ag3
aa(lp1164
S'2018-04-10 23:13:07.609117'
p1165
ag3
aa(lp1166
S'2018-04-10 23:13:07.714032'
p1167
ag3
aa(lp1168
S'2018-04-10 23:13:07.810627'
p1169
ag3
aa(lp1170
S'2018-04-10 23:13:07.917280'
p1171
ag3
aa(lp1172
S'2018-04-10 23:13:08.015950'
p1173
ag3
aa(lp1174
S'2018-04-10 23:13:08.112784'
p1175
ag3
aa(lp1176
S'2018-04-10 23:13:08.208008'
p1177
ag3
aa(lp1178
S'2018-04-10 23:13:08.305917'
p1179
ag3
aa(lp1180
S'2018-04-10 23:13:08.412653'
p1181
ag3
aa(lp1182
S'2018-04-10 23:13:08.508758'
p1183
ag3
aa(lp1184
S'2018-04-10 23:13:08.615905'
p1185
ag3
aa(lp1186
S'2018-04-10 23:13:08.712552'
p1187
ag3
aa(lp1188
S'2018-04-10 23:13:08.808869'
p1189
ag3
aa(lp1190
S'2018-04-10 23:13:08.915602'
p1191
ag3
aa(lp1192
S'2018-04-10 23:13:09.011196'
p1193
ag3
aa(lp1194
S'2018-04-10 23:13:09.110358'
p1195
ag3
aa(lp1196
S'2018-04-10 23:13:09.214250'
p1197
ag3
aa(lp1198
S'2018-04-10 23:13:09.308780'
p1199
ag3
aa(lp1200
S'2018-04-10 23:13:09.412641'
p1201
ag3
aa(lp1202
S'2018-04-10 23:13:09.519023'
p1203
ag3
aa(lp1204
S'2018-04-10 23:13:09.615302'
p1205
ag3
aa(lp1206
S'2018-04-10 23:13:09.710660'
p1207
ag3
aa(lp1208
S'2018-04-10 23:13:09.809103'
p1209
ag3
aa(lp1210
S'2018-04-10 23:13:09.914987'
p1211
ag3
aa(lp1212
S'2018-04-10 23:13:10.011449'
p1213
ag3
aa(lp1214
S'2018-04-10 23:13:10.107050'
p1215
ag3
aa(lp1216
S'2018-04-10 23:13:10.212396'
p1217
ag3
aa(lp1218
S'2018-04-10 23:13:10.307492'
p1219
ag3
aa(lp1220
S'2018-04-10 23:13:10.413222'
p1221
ag3
aa(lp1222
S'2018-04-10 23:13:10.508639'
p1223
ag3
aa(lp1224
S'2018-04-10 23:13:10.616035'
p1225
ag3
aa(lp1226
S'2018-04-10 23:13:10.712919'
p1227
ag3
aa(lp1228
S'2018-04-10 23:13:10.808794'
p1229
ag3
aa(lp1230
S'2018-04-10 23:13:10.907524'
p1231
ag3
aa(lp1232
S'2018-04-10 23:13:11.013675'
p1233
ag3
aa(lp1234
S'2018-04-10 23:13:11.109744'
p1235
ag3
aa(lp1236
S'2018-04-10 23:13:11.214399'
p1237
ag3
aa(lp1238
S'2018-04-10 23:13:11.310530'
p1239
ag3
aa(lp1240
S'2018-04-10 23:13:11.407380'
p1241
ag3
aa(lp1242
S'2018-04-10 23:13:11.514947'
p1243
ag3
aa(lp1244
S'2018-04-10 23:13:11.611346'
p1245
ag3
aa(lp1246
S'2018-04-10 23:13:11.706644'
p1247
ag3
aa(lp1248
S'2018-04-10 23:13:11.812954'
p1249
ag3
aa(lp1250
S'2018-04-10 23:13:11.910336'
p1251
ag3
aa(lp1252
S'2018-04-10 23:13:12.005271'
p1253
ag3
aa(lp1254
S'2018-04-10 23:13:12.112283'
p1255
ag3
aa(lp1256
S'2018-04-10 23:13:12.210528'
p1257
ag3
aa(lp1258
S'2018-04-10 23:13:12.307638'
p1259
ag3
aa(lp1260
S'2018-04-10 23:13:12.413725'
p1261
ag3
aa(lp1262
S'2018-04-10 23:13:12.511971'
p1263
ag3
aa(lp1264
S'2018-04-10 23:13:12.609461'
p1265
ag3
aa(lp1266
S'2018-04-10 23:13:12.705611'
p1267
ag3
aa(lp1268
S'2018-04-10 23:13:12.813634'
p1269
ag3
aa(lp1270
S'2018-04-10 23:13:12.910439'
p1271
ag3
aa(lp1272
S'2018-04-10 23:13:13.005307'
p1273
ag3
aa(lp1274
S'2018-04-10 23:13:13.112159'
p1275
ag3
aa(lp1276
S'2018-04-10 23:13:13.208037'
p1277
ag3
aa(lp1278
S'2018-04-10 23:13:13.314893'
p1279
ag3
aa(lp1280
S'2018-04-10 23:13:13.408689'
p1281
ag3
aa(lp1282
S'2018-04-10 23:13:13.504558'
p1283
ag3
aa(lp1284
S'2018-04-10 23:13:13.609149'
p1285
ag3
aa(lp1286
S'2018-04-10 23:13:13.707317'
p1287
ag3
aa(lp1288
S'2018-04-10 23:13:13.812269'
p1289
ag3
aa(lp1290
S'2018-04-10 23:13:13.908690'
p1291
ag3
aa(lp1292
S'2018-04-10 23:13:14.015903'
p1293
ag3
aa(lp1294
S'2018-04-10 23:13:14.113652'
p1295
ag3
aa(lp1296
S'2018-04-10 23:13:14.209168'
p1297
ag3
aa(lp1298
S'2018-04-10 23:13:14.304237'
p1299
ag3
aa(lp1300
S'2018-04-10 23:13:14.411275'
p1301
ag3
aa(lp1302
S'2018-04-10 23:13:14.509580'
p1303
ag3
aa(lp1304
S'2018-04-10 23:13:14.605576'
p1305
ag3
aa(lp1306
S'2018-04-10 23:13:14.712918'
p1307
ag3
aa(lp1308
S'2018-04-10 23:13:14.808211'
p1309
ag3
aa(lp1310
S'2018-04-10 23:13:14.905404'
p1311
ag3
aa(lp1312
S'2018-04-10 23:13:15.013895'
p1313
ag3
aa(lp1314
S'2018-04-10 23:13:15.111741'
p1315
ag3
aa(lp1316
S'2018-04-10 23:13:15.206786'
p1317
ag3
aa(lp1318
S'2018-04-10 23:13:15.304531'
p1319
ag3
aa(lp1320
S'2018-04-10 23:13:15.409850'
p1321
ag3
aa(lp1322
S'2018-04-10 23:13:15.517246'
p1323
ag3
aa(lp1324
S'2018-04-10 23:13:15.615802'
p1325
ag3
aa(lp1326
S'2018-04-10 23:13:15.711949'
p1327
ag3
aa(lp1328
S'2018-04-10 23:13:15.808252'
p1329
ag3
aa(lp1330
S'2018-04-10 23:13:15.904778'
p1331
ag3
aa(lp1332
S'2018-04-10 23:13:16.009701'
p1333
ag3
aa(lp1334
S'2018-04-10 23:13:16.111768'
p1335
ag3
aa(lp1336
S'2018-04-10 23:13:16.214274'
p1337
ag3
aa(lp1338
S'2018-04-10 23:13:16.308279'
p1339
ag3
aa(lp1340
S'2018-04-10 23:13:16.413305'
p1341
ag3
aa(lp1342
S'2018-04-10 23:13:16.510043'
p1343
ag3
aa(lp1344
S'2018-04-10 23:13:16.604337'
p1345
ag3
aa(lp1346
S'2018-04-10 23:13:16.708819'
p1347
ag3
aa(lp1348
S'2018-04-10 23:13:16.805229'
p1349
ag3
aa(lp1350
S'2018-04-10 23:13:16.911686'
p1351
ag3
aa(lp1352
S'2018-04-10 23:13:17.008812'
p1353
ag3
aa(lp1354
S'2018-04-10 23:13:17.104359'
p1355
ag3
aa(lp1356
S'2018-04-10 23:13:17.210725'
p1357
ag3
aa(lp1358
S'2018-04-10 23:13:17.307811'
p1359
ag3
aa(lp1360
S'2018-04-10 23:13:17.414420'
p1361
ag3
aa(lp1362
S'2018-04-10 23:13:17.509707'
p1363
ag3
aa(lp1364
S'2018-04-10 23:13:17.605094'
p1365
ag3
aa(lp1366
S'2018-04-10 23:13:17.711327'
p1367
ag3
aa(lp1368
S'2018-04-10 23:13:17.805741'
p1369
ag3
aa(lp1370
S'2018-04-10 23:13:17.911232'
p1371
ag3
aa(lp1372
S'2018-04-10 23:13:18.004548'
p1373
ag3
aa(lp1374
S'2018-04-10 23:13:18.107444'
p1375
ag3
aa(lp1376
S'2018-04-10 23:13:18.209997'
p1377
ag3
aa(lp1378
S'2018-04-10 23:13:18.313204'
p1379
ag3
aa(lp1380
S'2018-04-10 23:13:18.405414'
p1381
ag3
aa(lp1382
S'2018-04-10 23:13:18.510205'
p1383
ag3
aa(lp1384
S'2018-04-10 23:13:18.613586'
p1385
ag3
aa(lp1386
S'2018-04-10 23:13:18.706152'
p1387
ag3
aa(lp1388
S'2018-04-10 23:13:18.813044'
p1389
ag3
aa(lp1390
S'2018-04-10 23:13:18.909209'
p1391
ag3
aa(lp1392
S'2018-04-10 23:13:19.004244'
p1393
ag3
aa(lp1394
S'2018-04-10 23:13:19.108230'
p1395
ag3
aa(lp1396
S'2018-04-10 23:13:19.213412'
p1397
ag3
aa(lp1398
S'2018-04-10 23:13:19.310474'
p1399
ag3
aa(lp1400
S'2018-04-10 23:13:19.406185'
p1401
ag3
aa(lp1402
S'2018-04-10 23:13:19.513478'
p1403
ag3
aa(lp1404
S'2018-04-10 23:13:19.611988'
p1405
ag3
aa(lp1406
S'2018-04-10 23:13:19.706155'
p1407
ag3
aa(lp1408
S'2018-04-10 23:13:19.813706'
p1409
ag3
aa(lp1410
S'2018-04-10 23:13:19.910373'
p1411
ag3
aa(lp1412
S'2018-04-10 23:13:20.006854'
p1413
ag3
aa(lp1414
S'2018-04-10 23:13:20.112523'
p1415
ag3
aa(lp1416
S'2018-04-10 23:13:20.208900'
p1417
ag3
aa(lp1418
S'2018-04-10 23:13:20.304239'
p1419
ag3
aa(lp1420
S'2018-04-10 23:13:20.413435'
p1421
ag3
aa(lp1422
S'2018-04-10 23:13:20.509898'
p1423
ag3
aa(lp1424
S'2018-04-10 23:13:20.606660'
p1425
ag3
aa(lp1426
S'2018-04-10 23:13:20.703738'
p1427
ag3
aa(lp1428
S'2018-04-10 23:13:20.811919'
p1429
ag3
aa(lp1430
S'2018-04-10 23:13:20.910027'
p1431
ag3
aa(lp1432
S'2018-04-10 23:13:21.004967'
p1433
ag3
aa(lp1434
S'2018-04-10 23:13:21.113013'
p1435
ag3
aa(lp1436
S'2018-04-10 23:13:21.208181'
p1437
ag3
aa(lp1438
S'2018-04-10 23:13:21.305185'
p1439
ag3
aa(lp1440
S'2018-04-10 23:13:21.412593'
p1441
ag3
aa(lp1442
S'2018-04-10 23:13:21.509756'
p1443
ag3
aa(lp1444
S'2018-04-10 23:13:21.604473'
p1445
ag3
aa(lp1446
S'2018-04-10 23:13:21.711977'
p1447
ag3
aa(lp1448
S'2018-04-10 23:13:21.808702'
p1449
ag3
aa(lp1450
S'2018-04-10 23:13:21.904119'
p1451
ag3
aa(lp1452
S'2018-04-10 23:13:22.012067'
p1453
ag3
aa(lp1454
S'2018-04-10 23:13:22.107338'
p1455
ag3
aa(lp1456
S'2018-04-10 23:13:22.202630'
p1457
ag3
aa(lp1458
S'2018-04-10 23:13:22.308290'
p1459
ag3
aa(lp1460
S'2018-04-10 23:13:22.414223'
p1461
ag3
aa(lp1462
S'2018-04-10 23:13:22.508069'
p1463
ag3
aa(lp1464
S'2018-04-10 23:13:22.603831'
p1465
ag3
aa(lp1466
S'2018-04-10 23:13:22.708482'
p1467
ag3
aa(lp1468
S'2018-04-10 23:13:22.803313'
p1469
ag3
aa(lp1470
S'2018-04-10 23:13:22.912529'
p1471
ag3
aa(lp1472
S'2018-04-10 23:13:23.007522'
p1473
ag3
aa(lp1474
S'2018-04-10 23:13:23.216233'
p1475
ag3
aa(lp1476
S'2018-04-10 23:13:23.310753'
p1477
ag3
aa(lp1478
S'2018-04-10 23:13:23.407731'
p1479
ag3
aa(lp1480
S'2018-04-10 23:13:23.511115'
p1481
ag3
aa(lp1482
S'2018-04-10 23:13:23.606089'
p1483
ag3
aa(lp1484
S'2018-04-10 23:13:23.711202'
p1485
ag3
aa(lp1486
S'2018-04-10 23:13:23.810105'
p1487
ag3
aa(lp1488
S'2018-04-10 23:13:23.906373'
p1489
ag3
aa.