(lp0
(lp1
S'2018-05-29 19:06:25.954040'
p2
aS'Cantando'
p3
aa(lp4
S'2018-05-29 19:06:28.441097'
p5
ag3
aa(lp6
S'2018-05-29 19:06:28.516344'
p7
ag3
aa(lp8
S'2018-05-29 19:06:28.611677'
p9
ag3
aa(lp10
S'2018-05-29 19:06:28.707274'
p11
ag3
aa(lp12
S'2018-05-29 19:06:28.814787'
p13
ag3
aa(lp14
S'2018-05-29 19:06:28.913334'
p15
ag3
aa(lp16
S'2018-05-29 19:06:29.010860'
p17
ag3
aa(lp18
S'2018-05-29 19:06:29.115739'
p19
ag3
aa(lp20
S'2018-05-29 19:06:29.212967'
p21
ag3
aa(lp22
S'2018-05-29 19:06:29.311305'
p23
ag3
aa(lp24
S'2018-05-29 19:06:29.419579'
p25
ag3
aa(lp26
S'2018-05-29 19:06:29.514512'
p27
ag3
aa(lp28
S'2018-05-29 19:06:29.611919'
p29
ag3
aa(lp30
S'2018-05-29 19:06:29.706988'
p31
ag3
aa(lp32
S'2018-05-29 19:06:29.812890'
p33
ag3
aa(lp34
S'2018-05-29 19:06:29.908965'
p35
ag3
aa(lp36
S'2018-05-29 19:06:30.017162'
p37
ag3
aa(lp38
S'2018-05-29 19:06:30.114158'
p39
ag3
aa(lp40
S'2018-05-29 19:06:30.211646'
p41
ag3
aa(lp42
S'2018-05-29 19:06:30.309442'
p43
ag3
aa(lp44
S'2018-05-29 19:06:30.418156'
p45
ag3
aa(lp46
S'2018-05-29 19:06:30.514496'
p47
ag3
aa(lp48
S'2018-05-29 19:06:30.610441'
p49
ag3
aa(lp50
S'2018-05-29 19:06:30.714493'
p51
ag3
aa(lp52
S'2018-05-29 19:06:30.810369'
p53
ag3
aa(lp54
S'2018-05-29 19:06:30.915674'
p55
ag3
aa(lp56
S'2018-05-29 19:06:31.011269'
p57
ag3
aa(lp58
S'2018-05-29 19:06:31.118879'
p59
ag3
aa(lp60
S'2018-05-29 19:06:31.214237'
p61
ag3
aa(lp62
S'2018-05-29 19:06:31.310194'
p63
ag3
aa(lp64
S'2018-05-29 19:06:31.417177'
p65
ag3
aa(lp66
S'2018-05-29 19:06:31.515361'
p67
ag3
aa(lp68
S'2018-05-29 19:06:31.610976'
p69
ag3
aa(lp70
S'2018-05-29 19:06:31.707832'
p71
ag3
aa(lp72
S'2018-05-29 19:06:31.814011'
p73
ag3
aa(lp74
S'2018-05-29 19:06:31.912380'
p75
ag3
aa(lp76
S'2018-05-29 19:06:32.008301'
p77
ag3
aa(lp78
S'2018-05-29 19:06:32.115337'
p79
ag3
aa(lp80
S'2018-05-29 19:06:32.210728'
p81
ag3
aa(lp82
S'2018-05-29 19:06:32.316682'
p83
ag3
aa(lp84
S'2018-05-29 19:06:32.411965'
p85
ag3
aa(lp86
S'2018-05-29 19:06:32.509957'
p87
ag3
aa(lp88
S'2018-05-29 19:06:32.616825'
p89
ag3
aa(lp90
S'2018-05-29 19:06:32.712866'
p91
ag3
aa(lp92
S'2018-05-29 19:06:32.808308'
p93
ag3
aa(lp94
S'2018-05-29 19:06:32.915087'
p95
ag3
aa(lp96
S'2018-05-29 19:06:33.009809'
p97
ag3
aa(lp98
S'2018-05-29 19:06:33.116976'
p99
ag3
aa(lp100
S'2018-05-29 19:06:33.210703'
p101
ag3
aa(lp102
S'2018-05-29 19:06:33.316249'
p103
ag3
aa(lp104
S'2018-05-29 19:06:33.411387'
p105
ag3
aa(lp106
S'2018-05-29 19:06:33.507643'
p107
ag3
aa(lp108
S'2018-05-29 19:06:33.613503'
p109
ag3
aa(lp110
S'2018-05-29 19:06:33.708361'
p111
ag3
aa(lp112
S'2018-05-29 19:06:33.815592'
p113
ag3
aa(lp114
S'2018-05-29 19:06:33.912808'
p115
ag3
aa(lp116
S'2018-05-29 19:06:34.008974'
p117
ag3
aa(lp118
S'2018-05-29 19:06:34.113150'
p119
ag3
aa(lp120
S'2018-05-29 19:06:34.215918'
p121
ag3
aa(lp122
S'2018-05-29 19:06:34.313376'
p123
ag3
aa(lp124
S'2018-05-29 19:06:34.407686'
p125
ag3
aa(lp126
S'2018-05-29 19:06:34.514362'
p127
ag3
aa(lp128
S'2018-05-29 19:06:34.617995'
p129
ag3
aa(lp130
S'2018-05-29 19:06:34.713384'
p131
ag3
aa(lp132
S'2018-05-29 19:06:34.819379'
p133
ag3
aa(lp134
S'2018-05-29 19:06:34.913472'
p135
ag3
aa(lp136
S'2018-05-29 19:06:35.009904'
p137
ag3
aa(lp138
S'2018-05-29 19:06:35.117794'
p139
ag3
aa(lp140
S'2018-05-29 19:06:35.213077'
p141
ag3
aa(lp142
S'2018-05-29 19:06:35.307123'
p143
ag3
aa(lp144
S'2018-05-29 19:06:35.414526'
p145
ag3
aa(lp146
S'2018-05-29 19:06:35.510981'
p147
ag3
aa(lp148
S'2018-05-29 19:06:35.615823'
p149
ag3
aa(lp150
S'2018-05-29 19:06:35.710694'
p151
ag3
aa(lp152
S'2018-05-29 19:06:35.816732'
p153
ag3
aa(lp154
S'2018-05-29 19:06:35.912526'
p155
ag3
aa(lp156
S'2018-05-29 19:06:36.008443'
p157
ag3
aa(lp158
S'2018-05-29 19:06:36.114974'
p159
ag3
aa(lp160
S'2018-05-29 19:06:36.211774'
p161
ag3
aa(lp162
S'2018-05-29 19:06:36.309710'
p163
ag3
aa(lp164
S'2018-05-29 19:06:36.414110'
p165
ag3
aa(lp166
S'2018-05-29 19:06:36.511153'
p167
ag3
aa(lp168
S'2018-05-29 19:06:36.615705'
p169
ag3
aa(lp170
S'2018-05-29 19:06:36.710915'
p171
ag3
aa(lp172
S'2018-05-29 19:06:36.817194'
p173
ag3
aa(lp174
S'2018-05-29 19:06:36.911756'
p175
ag3
aa(lp176
S'2018-05-29 19:06:37.007467'
p177
ag3
aa(lp178
S'2018-05-29 19:06:37.208723'
p179
ag3
aa(lp180
S'2018-05-29 19:06:37.315624'
p181
ag3
aa(lp182
S'2018-05-29 19:06:37.411626'
p183
ag3
aa(lp184
S'2018-05-29 19:06:37.507674'
p185
ag3
aa(lp186
S'2018-05-29 19:06:37.614240'
p187
ag3
aa(lp188
S'2018-05-29 19:06:37.709069'
p189
ag3
aa(lp190
S'2018-05-29 19:06:37.816441'
p191
ag3
aa(lp192
S'2018-05-29 19:06:37.913147'
p193
ag3
aa(lp194
S'2018-05-29 19:06:38.008119'
p195
ag3
aa(lp196
S'2018-05-29 19:06:38.115205'
p197
ag3
aa(lp198
S'2018-05-29 19:06:38.213118'
p199
ag3
aa(lp200
S'2018-05-29 19:06:38.309180'
p201
ag3
aa(lp202
S'2018-05-29 19:06:38.408781'
p203
ag3
aa(lp204
S'2018-05-29 19:06:38.517022'
p205
ag3
aa(lp206
S'2018-05-29 19:06:38.610600'
p207
ag3
aa(lp208
S'2018-05-29 19:06:38.714912'
p209
ag3
aa(lp210
S'2018-05-29 19:06:38.811496'
p211
ag3
aa(lp212
S'2018-05-29 19:06:38.909947'
p213
ag3
aa(lp214
S'2018-05-29 19:06:39.009512'
p215
ag3
aa(lp216
S'2018-05-29 19:06:39.107529'
p217
ag3
aa(lp218
S'2018-05-29 19:06:39.213952'
p219
ag3
aa(lp220
S'2018-05-29 19:06:39.311061'
p221
ag3
aa(lp222
S'2018-05-29 19:06:39.411641'
p223
ag3
aa(lp224
S'2018-05-29 19:06:39.508035'
p225
ag3
aa(lp226
S'2018-05-29 19:06:39.616205'
p227
ag3
aa(lp228
S'2018-05-29 19:06:39.713515'
p229
ag3
aa(lp230
S'2018-05-29 19:06:39.810263'
p231
ag3
aa(lp232
S'2018-05-29 19:06:39.916145'
p233
ag3
aa(lp234
S'2018-05-29 19:06:40.011333'
p235
ag3
aa(lp236
S'2018-05-29 19:06:40.109088'
p237
ag3
aa(lp238
S'2018-05-29 19:06:40.216348'
p239
ag3
aa(lp240
S'2018-05-29 19:06:40.313827'
p241
ag3
aa(lp242
S'2018-05-29 19:06:40.408798'
p243
ag3
aa(lp244
S'2018-05-29 19:06:40.506059'
p245
ag3
aa(lp246
S'2018-05-29 19:06:40.613681'
p247
ag3
aa(lp248
S'2018-05-29 19:06:40.710980'
p249
ag3
aa(lp250
S'2018-05-29 19:06:40.809242'
p251
ag3
aa(lp252
S'2018-05-29 19:06:40.916559'
p253
ag3
aa(lp254
S'2018-05-29 19:06:41.013905'
p255
ag3
aa(lp256
S'2018-05-29 19:06:41.110411'
p257
ag3
aa(lp258
S'2018-05-29 19:06:41.209734'
p259
ag3
aa(lp260
S'2018-05-29 19:06:41.316462'
p261
ag3
aa(lp262
S'2018-05-29 19:06:41.412276'
p263
ag3
aa(lp264
S'2018-05-29 19:06:41.509957'
p265
ag3
aa(lp266
S'2018-05-29 19:06:41.608651'
p267
ag3
aa(lp268
S'2018-05-29 19:06:41.715236'
p269
ag3
aa(lp270
S'2018-05-29 19:06:41.812009'
p271
ag3
aa(lp272
S'2018-05-29 19:06:41.907737'
p273
ag3
aa(lp274
S'2018-05-29 19:06:42.012379'
p275
ag3
aa(lp276
S'2018-05-29 19:06:42.110142'
p277
ag3
aa(lp278
S'2018-05-29 19:06:42.208452'
p279
ag3
aa(lp280
S'2018-05-29 19:06:42.315925'
p281
ag3
aa(lp282
S'2018-05-29 19:06:42.412178'
p283
ag3
aa(lp284
S'2018-05-29 19:06:42.507193'
p285
ag3
aa(lp286
S'2018-05-29 19:06:42.613733'
p287
ag3
aa(lp288
S'2018-05-29 19:06:42.712403'
p289
ag3
aa(lp290
S'2018-05-29 19:06:42.808816'
p291
ag3
aa(lp292
S'2018-05-29 19:06:42.915823'
p293
ag3
aa(lp294
S'2018-05-29 19:06:43.011484'
p295
ag3
aa(lp296
S'2018-05-29 19:06:43.108378'
p297
ag3
aa(lp298
S'2018-05-29 19:06:43.216321'
p299
ag3
aa(lp300
S'2018-05-29 19:06:43.312565'
p301
ag3
aa(lp302
S'2018-05-29 19:06:43.409825'
p303
ag3
aa(lp304
S'2018-05-29 19:06:43.516133'
p305
ag3
aa(lp306
S'2018-05-29 19:06:43.611666'
p307
ag3
aa(lp308
S'2018-05-29 19:06:43.711204'
p309
ag3
aa(lp310
S'2018-05-29 19:06:43.815811'
p311
ag3
aa(lp312
S'2018-05-29 19:06:43.912341'
p313
ag3
aa(lp314
S'2018-05-29 19:06:44.008725'
p315
ag3
aa(lp316
S'2018-05-29 19:06:44.105575'
p317
ag3
aa(lp318
S'2018-05-29 19:06:44.213254'
p319
ag3
aa(lp320
S'2018-05-29 19:06:44.310217'
p321
ag3
aa(lp322
S'2018-05-29 19:06:44.417116'
p323
ag3
aa(lp324
S'2018-05-29 19:06:44.513170'
p325
ag3
aa(lp326
S'2018-05-29 19:06:44.609866'
p327
ag3
aa(lp328
S'2018-05-29 19:06:44.706153'
p329
ag3
aa(lp330
S'2018-05-29 19:06:44.813393'
p331
ag3
aa(lp332
S'2018-05-29 19:06:44.910111'
p333
ag3
aa(lp334
S'2018-05-29 19:06:45.006662'
p335
ag3
aa(lp336
S'2018-05-29 19:06:45.112020'
p337
ag3
aa(lp338
S'2018-05-29 19:06:45.209329'
p339
ag3
aa(lp340
S'2018-05-29 19:06:45.305300'
p341
ag3
aa(lp342
S'2018-05-29 19:06:45.414131'
p343
ag3
aa(lp344
S'2018-05-29 19:06:45.510649'
p345
ag3
aa(lp346
S'2018-05-29 19:06:45.608407'
p347
ag3
aa(lp348
S'2018-05-29 19:06:45.706864'
p349
ag3
aa(lp350
S'2018-05-29 19:06:45.815782'
p351
ag3
aa(lp352
S'2018-05-29 19:06:45.910115'
p353
ag3
aa(lp354
S'2018-05-29 19:06:46.007818'
p355
ag3
aa(lp356
S'2018-05-29 19:06:46.116432'
p357
ag3
aa(lp358
S'2018-05-29 19:06:46.211682'
p359
ag3
aa(lp360
S'2018-05-29 19:06:46.318223'
p361
ag3
aa(lp362
S'2018-05-29 19:06:46.413850'
p363
ag3
aa(lp364
S'2018-05-29 19:06:46.510298'
p365
ag3
aa(lp366
S'2018-05-29 19:06:46.617243'
p367
ag3
aa(lp368
S'2018-05-29 19:06:46.713291'
p369
ag3
aa(lp370
S'2018-05-29 19:06:46.809425'
p371
ag3
aa(lp372
S'2018-05-29 19:06:46.913999'
p373
ag3
aa(lp374
S'2018-05-29 19:06:47.009832'
p375
ag3
aa(lp376
S'2018-05-29 19:06:47.107519'
p377
ag3
aa(lp378
S'2018-05-29 19:06:47.213593'
p379
ag3
aa(lp380
S'2018-05-29 19:06:47.310176'
p381
ag3
aa(lp382
S'2018-05-29 19:06:47.416880'
p383
ag3
aa(lp384
S'2018-05-29 19:06:47.513184'
p385
ag3
aa(lp386
S'2018-05-29 19:06:47.609586'
p387
ag3
aa(lp388
S'2018-05-29 19:06:47.715105'
p389
ag3
aa(lp390
S'2018-05-29 19:06:47.811482'
p391
ag3
aa(lp392
S'2018-05-29 19:06:47.907706'
p393
ag3
aa(lp394
S'2018-05-29 19:06:48.012096'
p395
ag3
aa(lp396
S'2018-05-29 19:06:48.110110'
p397
ag3
aa(lp398
S'2018-05-29 19:06:48.206101'
p399
ag3
aa(lp400
S'2018-05-29 19:06:48.310615'
p401
ag3
aa(lp402
S'2018-05-29 19:06:48.414930'
p403
ag3
aa(lp404
S'2018-05-29 19:06:48.511072'
p405
ag3
aa(lp406
S'2018-05-29 19:06:48.607555'
p407
ag3
aa(lp408
S'2018-05-29 19:06:48.714964'
p409
ag3
aa(lp410
S'2018-05-29 19:06:48.809934'
p411
ag3
aa(lp412
S'2018-05-29 19:06:48.907637'
p413
ag3
aa(lp414
S'2018-05-29 19:06:49.014034'
p415
ag3
aa(lp416
S'2018-05-29 19:06:49.109709'
p417
ag3
aa(lp418
S'2018-05-29 19:06:49.207490'
p419
ag3
aa(lp420
S'2018-05-29 19:06:49.314208'
p421
ag3
aa(lp422
S'2018-05-29 19:06:49.411582'
p423
ag3
aa(lp424
S'2018-05-29 19:06:49.506612'
p425
ag3
aa(lp426
S'2018-05-29 19:06:49.613155'
p427
ag3
aa(lp428
S'2018-05-29 19:06:49.710205'
p429
ag3
aa(lp430
S'2018-05-29 19:06:49.808322'
p431
ag3
aa(lp432
S'2018-05-29 19:06:49.907647'
p433
ag3
aa(lp434
S'2018-05-29 19:06:50.013018'
p435
ag3
aa(lp436
S'2018-05-29 19:06:50.109977'
p437
ag3
aa(lp438
S'2018-05-29 19:06:50.208827'
p439
ag3
aa(lp440
S'2018-05-29 19:06:50.315693'
p441
ag3
aa(lp442
S'2018-05-29 19:06:50.410621'
p443
ag3
aa(lp444
S'2018-05-29 19:06:50.508479'
p445
ag3
aa(lp446
S'2018-05-29 19:06:50.611699'
p447
ag3
aa(lp448
S'2018-05-29 19:06:50.710186'
p449
ag3
aa(lp450
S'2018-05-29 19:06:50.804696'
p451
ag3
aa(lp452
S'2018-05-29 19:06:50.910181'
p453
ag3
aa(lp454
S'2018-05-29 19:06:51.005185'
p455
ag3
aa(lp456
S'2018-05-29 19:06:51.110432'
p457
ag3
aa(lp458
S'2018-05-29 19:06:51.207319'
p459
ag3
aa(lp460
S'2018-05-29 19:06:51.306375'
p461
ag3
aa(lp462
S'2018-05-29 19:06:51.414816'
p463
ag3
aa(lp464
S'2018-05-29 19:06:51.510638'
p465
ag3
aa(lp466
S'2018-05-29 19:06:51.606100'
p467
ag3
aa(lp468
S'2018-05-29 19:06:51.711308'
p469
ag3
aa(lp470
S'2018-05-29 19:06:51.809219'
p471
ag3
aa(lp472
S'2018-05-29 19:06:51.904922'
p473
ag3
aa(lp474
S'2018-05-29 19:06:52.010955'
p475
ag3
aa(lp476
S'2018-05-29 19:06:52.109421'
p477
ag3
aa(lp478
S'2018-05-29 19:06:52.205139'
p479
ag3
aa(lp480
S'2018-05-29 19:06:52.308958'
p481
ag3
aa(lp482
S'2018-05-29 19:06:52.414503'
p483
ag3
aa(lp484
S'2018-05-29 19:06:52.510168'
p485
ag3
aa(lp486
S'2018-05-29 19:06:52.609251'
p487
ag3
aa(lp488
S'2018-05-29 19:06:52.714632'
p489
ag3
aa(lp490
S'2018-05-29 19:06:52.809968'
p491
ag3
aa(lp492
S'2018-05-29 19:06:52.908555'
p493
ag3
aa(lp494
S'2018-05-29 19:06:53.014012'
p495
ag3
aa(lp496
S'2018-05-29 19:06:53.110693'
p497
ag3
aa(lp498
S'2018-05-29 19:06:53.205603'
p499
ag3
aa(lp500
S'2018-05-29 19:06:53.314026'
p501
ag3
aa(lp502
S'2018-05-29 19:06:53.410182'
p503
ag3
aa(lp504
S'2018-05-29 19:06:53.505410'
p505
ag3
aa(lp506
S'2018-05-29 19:06:53.612994'
p507
ag3
aa(lp508
S'2018-05-29 19:06:53.708299'
p509
ag3
aa(lp510
S'2018-05-29 19:06:53.816431'
p511
ag3
aa(lp512
S'2018-05-29 19:06:53.912995'
p513
ag3
aa(lp514
S'2018-05-29 19:06:54.009656'
p515
ag3
aa(lp516
S'2018-05-29 19:06:54.107446'
p517
ag3
aa(lp518
S'2018-05-29 19:06:54.205320'
p519
ag3
aa(lp520
S'2018-05-29 19:06:54.313785'
p521
ag3
aa(lp522
S'2018-05-29 19:06:54.413362'
p523
ag3
aa(lp524
S'2018-05-29 19:06:54.510354'
p525
ag3
aa(lp526
S'2018-05-29 19:06:54.616194'
p527
ag3
aa(lp528
S'2018-05-29 19:06:54.712431'
p529
ag3
aa(lp530
S'2018-05-29 19:06:54.809719'
p531
ag3
aa(lp532
S'2018-05-29 19:06:54.906490'
p533
ag3
aa(lp534
S'2018-05-29 19:06:55.013219'
p535
ag3
aa(lp536
S'2018-05-29 19:06:55.111121'
p537
ag3
aa(lp538
S'2018-05-29 19:06:55.209250'
p539
ag3
aa(lp540
S'2018-05-29 19:06:55.309218'
p541
ag3
aa(lp542
S'2018-05-29 19:06:55.414265'
p543
ag3
aa(lp544
S'2018-05-29 19:06:55.509720'
p545
ag3
aa(lp546
S'2018-05-29 19:06:55.606175'
p547
ag3
aa(lp548
S'2018-05-29 19:06:55.711980'
p549
ag3
aa(lp550
S'2018-05-29 19:06:55.808853'
p551
ag3
aa(lp552
S'2018-05-29 19:06:55.908519'
p553
ag3
aa(lp554
S'2018-05-29 19:06:56.005024'
p555
ag3
aa(lp556
S'2018-05-29 19:06:56.110666'
p557
ag3
aa(lp558
S'2018-05-29 19:06:56.208804'
p559
ag3
aa(lp560
S'2018-05-29 19:06:56.305405'
p561
ag3
aa(lp562
S'2018-05-29 19:06:56.412290'
p563
ag3
aa(lp564
S'2018-05-29 19:06:56.509318'
p565
ag3
aa(lp566
S'2018-05-29 19:06:56.605128'
p567
ag3
aa(lp568
S'2018-05-29 19:06:56.713093'
p569
ag3
aa(lp570
S'2018-05-29 19:06:56.811140'
p571
ag3
aa(lp572
S'2018-05-29 19:06:56.908737'
p573
ag3
aa(lp574
S'2018-05-29 19:06:57.015442'
p575
ag3
aa(lp576
S'2018-05-29 19:06:57.113335'
p577
ag3
aa(lp578
S'2018-05-29 19:06:57.208714'
p579
ag3
aa(lp580
S'2018-05-29 19:06:57.305202'
p581
ag3
aa(lp582
S'2018-05-29 19:06:57.411872'
p583
ag3
aa(lp584
S'2018-05-29 19:06:57.508340'
p585
ag3
aa(lp586
S'2018-05-29 19:06:57.615174'
p587
ag3
aa(lp588
S'2018-05-29 19:06:57.710464'
p589
ag3
aa(lp590
S'2018-05-29 19:06:57.806682'
p591
ag3
aa(lp592
S'2018-05-29 19:06:57.913932'
p593
ag3
aa(lp594
S'2018-05-29 19:06:58.013794'
p595
ag3
aa(lp596
S'2018-05-29 19:06:58.110821'
p597
ag3
aa(lp598
S'2018-05-29 19:06:58.208935'
p599
ag3
aa(lp600
S'2018-05-29 19:06:58.307828'
p601
ag3
aa(lp602
S'2018-05-29 19:06:58.414570'
p603
ag3
aa(lp604
S'2018-05-29 19:06:58.509867'
p605
ag3
aa(lp606
S'2018-05-29 19:06:58.606727'
p607
ag3
aa(lp608
S'2018-05-29 19:06:58.704098'
p609
ag3
aa(lp610
S'2018-05-29 19:06:58.811571'
p611
ag3
aa(lp612
S'2018-05-29 19:06:58.909556'
p613
ag3
aa(lp614
S'2018-05-29 19:06:59.007572'
p615
ag3
aa(lp616
S'2018-05-29 19:06:59.105052'
p617
ag3
aa(lp618
S'2018-05-29 19:06:59.210750'
p619
ag3
aa(lp620
S'2018-05-29 19:06:59.309564'
p621
ag3
aa(lp622
S'2018-05-29 19:06:59.405852'
p623
ag3
aa(lp624
S'2018-05-29 19:06:59.510641'
p625
ag3
aa(lp626
S'2018-05-29 19:06:59.607774'
p627
ag3
aa(lp628
S'2018-05-29 19:06:59.704663'
p629
ag3
aa(lp630
S'2018-05-29 19:06:59.811075'
p631
ag3
aa(lp632
S'2018-05-29 19:06:59.907809'
p633
ag3
aa(lp634
S'2018-05-29 19:07:00.014657'
p635
ag3
aa(lp636
S'2018-05-29 19:07:00.110277'
p637
ag3
aa(lp638
S'2018-05-29 19:07:00.206586'
p639
ag3
aa(lp640
S'2018-05-29 19:07:00.312867'
p641
ag3
aa(lp642
S'2018-05-29 19:07:00.406480'
p643
ag3
aa(lp644
S'2018-05-29 19:07:00.512721'
p645
ag3
aa(lp646
S'2018-05-29 19:07:00.609971'
p647
ag3
aa(lp648
S'2018-05-29 19:07:00.707041'
p649
ag3
aa(lp650
S'2018-05-29 19:07:00.815122'
p651
ag3
aa(lp652
S'2018-05-29 19:07:00.912341'
p653
ag3
aa(lp654
S'2018-05-29 19:07:01.006944'
p655
ag3
aa(lp656
S'2018-05-29 19:07:01.113191'
p657
ag3
aa(lp658
S'2018-05-29 19:07:01.209623'
p659
ag3
aa(lp660
S'2018-05-29 19:07:01.315917'
p661
ag3
aa(lp662
S'2018-05-29 19:07:01.412425'
p663
ag3
aa(lp664
S'2018-05-29 19:07:01.509550'
p665
ag3
aa(lp666
S'2018-05-29 19:07:01.605893'
p667
ag3
aa(lp668
S'2018-05-29 19:07:01.712783'
p669
ag3
aa(lp670
S'2018-05-29 19:07:01.810100'
p671
ag3
aa(lp672
S'2018-05-29 19:07:01.907992'
p673
ag3
aa(lp674
S'2018-05-29 19:07:02.003926'
p675
ag3
aa(lp676
S'2018-05-29 19:07:02.112570'
p677
ag3
aa(lp678
S'2018-05-29 19:07:02.209497'
p679
ag3
aa(lp680
S'2018-05-29 19:07:02.307006'
p681
ag3
aa(lp682
S'2018-05-29 19:07:02.415059'
p683
ag3
aa(lp684
S'2018-05-29 19:07:02.510430'
p685
ag3
aa(lp686
S'2018-05-29 19:07:02.605946'
p687
ag3
aa(lp688
S'2018-05-29 19:07:02.712668'
p689
ag3
aa(lp690
S'2018-05-29 19:07:02.809884'
p691
ag3
aa(lp692
S'2018-05-29 19:07:02.904967'
p693
ag3
aa(lp694
S'2018-05-29 19:07:03.011387'
p695
ag3
aa(lp696
S'2018-05-29 19:07:03.107853'
p697
ag3
aa(lp698
S'2018-05-29 19:07:03.203353'
p699
ag3
aa(lp700
S'2018-05-29 19:07:03.310045'
p701
ag3
aa(lp702
S'2018-05-29 19:07:03.406666'
p703
ag3
aa(lp704
S'2018-05-29 19:07:03.505580'
p705
ag3
aa(lp706
S'2018-05-29 19:07:03.612335'
p707
ag3
aa(lp708
S'2018-05-29 19:07:03.709001'
p709
ag3
aa(lp710
S'2018-05-29 19:07:03.808117'
p711
ag3
aa(lp712
S'2018-05-29 19:07:03.905536'
p713
ag3
aa(lp714
S'2018-05-29 19:07:04.012939'
p715
ag3
aa(lp716
S'2018-05-29 19:07:04.110376'
p717
ag3
aa(lp718
S'2018-05-29 19:07:04.205905'
p719
ag3
aa(lp720
S'2018-05-29 19:07:04.313679'
p721
ag3
aa(lp722
S'2018-05-29 19:07:04.409611'
p723
ag3
aa(lp724
S'2018-05-29 19:07:04.509817'
p725
ag3
aa(lp726
S'2018-05-29 19:07:04.605825'
p727
ag3
aa(lp728
S'2018-05-29 19:07:04.702498'
p729
ag3
aa(lp730
S'2018-05-29 19:07:04.809720'
p731
ag3
aa(lp732
S'2018-05-29 19:07:04.905354'
p733
ag3
aa(lp734
S'2018-05-29 19:07:05.011444'
p735
ag3
aa(lp736
S'2018-05-29 19:07:05.106638'
p737
ag3
aa(lp738
S'2018-05-29 19:07:05.205493'
p739
ag3
aa(lp740
S'2018-05-29 19:07:05.311797'
p741
ag3
aa(lp742
S'2018-05-29 19:07:05.409809'
p743
ag3
aa(lp744
S'2018-05-29 19:07:05.505966'
p745
ag3
aa(lp746
S'2018-05-29 19:07:05.612798'
p747
ag3
aa(lp748
S'2018-05-29 19:07:05.710272'
p749
ag3
aa(lp750
S'2018-05-29 19:07:05.807399'
p751
ag3
aa(lp752
S'2018-05-29 19:07:05.905678'
p753
ag3
aa(lp754
S'2018-05-29 19:07:06.014464'
p755
ag3
aa(lp756
S'2018-05-29 19:07:06.112485'
p757
ag3
aa(lp758
S'2018-05-29 19:07:06.209048'
p759
ag3
aa(lp760
S'2018-05-29 19:07:06.305360'
p761
ag3
aa(lp762
S'2018-05-29 19:07:06.412866'
p763
ag3
aa(lp764
S'2018-05-29 19:07:06.508934'
p765
ag3
aa(lp766
S'2018-05-29 19:07:06.606661'
p767
ag3
aa(lp768
S'2018-05-29 19:07:06.713209'
p769
ag3
aa(lp770
S'2018-05-29 19:07:06.809920'
p771
ag3
aa(lp772
S'2018-05-29 19:07:06.906651'
p773
ag3
aa(lp774
S'2018-05-29 19:07:07.003740'
p775
ag3
aa(lp776
S'2018-05-29 19:07:07.109486'
p777
ag3
aa(lp778
S'2018-05-29 19:07:07.205299'
p779
ag3
aa(lp780
S'2018-05-29 19:07:07.312812'
p781
ag3
aa(lp782
S'2018-05-29 19:07:07.409191'
p783
ag3
aa(lp784
S'2018-05-29 19:07:07.504527'
p785
ag3
aa(lp786
S'2018-05-29 19:07:07.612902'
p787
ag3
aa(lp788
S'2018-05-29 19:07:07.710359'
p789
ag3
aa(lp790
S'2018-05-29 19:07:07.808938'
p791
ag3
aa(lp792
S'2018-05-29 19:07:07.905057'
p793
ag3
aa(lp794
S'2018-05-29 19:07:08.011834'
p795
ag3
aa(lp796
S'2018-05-29 19:07:08.107521'
p797
ag3
aa(lp798
S'2018-05-29 19:07:08.206870'
p799
ag3
aa(lp800
S'2018-05-29 19:07:08.301800'
p801
ag3
aa(lp802
S'2018-05-29 19:07:08.409101'
p803
ag3
aa(lp804
S'2018-05-29 19:07:08.513386'
p805
ag3
aa(lp806
S'2018-05-29 19:07:08.609949'
p807
ag3
aa(lp808
S'2018-05-29 19:07:08.707564'
p809
ag3
aa(lp810
S'2018-05-29 19:07:08.811623'
p811
ag3
aa(lp812
S'2018-05-29 19:07:08.909730'
p813
ag3
aa(lp814
S'2018-05-29 19:07:09.006932'
p815
ag3
aa(lp816
S'2018-05-29 19:07:09.105973'
p817
ag3
aa(lp818
S'2018-05-29 19:07:09.212015'
p819
ag3
aa(lp820
S'2018-05-29 19:07:09.308421'
p821
ag3
aa(lp822
S'2018-05-29 19:07:09.404572'
p823
ag3
aa(lp824
S'2018-05-29 19:07:09.501711'
p825
ag3
aa(lp826
S'2018-05-29 19:07:09.609512'
p827
ag3
aa(lp828
S'2018-05-29 19:07:09.707197'
p829
ag3
aa(lp830
S'2018-05-29 19:07:09.811600'
p831
ag3
aa(lp832
S'2018-05-29 19:07:09.910002'
p833
ag3
aa(lp834
S'2018-05-29 19:07:10.007627'
p835
ag3
aa(lp836
S'2018-05-29 19:07:10.104440'
p837
ag3
aa(lp838
S'2018-05-29 19:07:10.211638'
p839
ag3
aa(lp840
S'2018-05-29 19:07:10.308495'
p841
ag3
aa(lp842
S'2018-05-29 19:07:10.406589'
p843
ag3
aa(lp844
S'2018-05-29 19:07:10.512932'
p845
ag3
aa(lp846
S'2018-05-29 19:07:10.609914'
p847
ag3
aa(lp848
S'2018-05-29 19:07:10.705447'
p849
ag3
aa(lp850
S'2018-05-29 19:07:10.811997'
p851
ag3
aa(lp852
S'2018-05-29 19:07:10.907611'
p853
ag3
aa(lp854
S'2018-05-29 19:07:11.005279'
p855
ag3
aa(lp856
S'2018-05-29 19:07:11.112978'
p857
ag3
aa(lp858
S'2018-05-29 19:07:11.209510'
p859
ag3
aa(lp860
S'2018-05-29 19:07:11.305632'
p861
ag3
aa(lp862
S'2018-05-29 19:07:11.412099'
p863
ag3
aa(lp864
S'2018-05-29 19:07:11.509047'
p865
ag3
aa(lp866
S'2018-05-29 19:07:11.605733'
p867
ag3
aa(lp868
S'2018-05-29 19:07:11.702656'
p869
ag3
aa(lp870
S'2018-05-29 19:07:11.809383'
p871
ag3
aa(lp872
S'2018-05-29 19:07:11.905757'
p873
ag3
aa(lp874
S'2018-05-29 19:07:12.010130'
p875
ag3
aa(lp876
S'2018-05-29 19:07:12.105314'
p877
ag3
aa(lp878
S'2018-05-29 19:07:12.209907'
p879
ag3
aa(lp880
S'2018-05-29 19:07:12.308648'
p881
ag3
aa(lp882
S'2018-05-29 19:07:12.414241'
p883
ag3
aa(lp884
S'2018-05-29 19:07:12.509402'
p885
ag3
aa(lp886
S'2018-05-29 19:07:12.607583'
p887
ag3
aa(lp888
S'2018-05-29 19:07:12.702393'
p889
ag3
aa(lp890
S'2018-05-29 19:07:12.809900'
p891
ag3
aa(lp892
S'2018-05-29 19:07:12.907473'
p893
ag3
aa(lp894
S'2018-05-29 19:07:13.004231'
p895
ag3
aa(lp896
S'2018-05-29 19:07:13.112617'
p897
ag3
aa(lp898
S'2018-05-29 19:07:13.209077'
p899
ag3
aa(lp900
S'2018-05-29 19:07:13.304989'
p901
ag3
aa(lp902
S'2018-05-29 19:07:13.411742'
p903
ag3
aa(lp904
S'2018-05-29 19:07:13.507906'
p905
ag3
aa(lp906
S'2018-05-29 19:07:13.602444'
p907
ag3
aa(lp908
S'2018-05-29 19:07:13.710085'
p909
ag3
aa(lp910
S'2018-05-29 19:07:13.807097'
p911
ag3
aa(lp912
S'2018-05-29 19:07:13.902442'
p913
ag3
aa(lp914
S'2018-05-29 19:07:14.009812'
p915
ag3
aa(lp916
S'2018-05-29 19:07:14.105815'
p917
ag3
aa(lp918
S'2018-05-29 19:07:14.212476'
p919
ag3
aa(lp920
S'2018-05-29 19:07:14.309723'
p921
ag3
aa(lp922
S'2018-05-29 19:07:14.409009'
p923
ag3
aa(lp924
S'2018-05-29 19:07:14.505778'
p925
ag3
aa(lp926
S'2018-05-29 19:07:14.611663'
p927
ag3
aa(lp928
S'2018-05-29 19:07:14.709391'
p929
ag3
aa(lp930
S'2018-05-29 19:07:14.806629'
p931
ag3
aa(lp932
S'2018-05-29 19:07:14.904075'
p933
ag3
aa(lp934
S'2018-05-29 19:07:15.011927'
p935
ag3
aa(lp936
S'2018-05-29 19:07:15.108608'
p937
ag3
aa(lp938
S'2018-05-29 19:07:15.203989'
p939
ag3
aa(lp940
S'2018-05-29 19:07:15.310338'
p941
ag3
aa(lp942
S'2018-05-29 19:07:15.408128'
p943
ag3
aa(lp944
S'2018-05-29 19:07:15.504898'
p945
ag3
aa(lp946
S'2018-05-29 19:07:15.612318'
p947
ag3
aa(lp948
S'2018-05-29 19:07:15.708824'
p949
ag3
aa(lp950
S'2018-05-29 19:07:15.805812'
p951
ag3
aa(lp952
S'2018-05-29 19:07:15.905022'
p953
ag3
aa(lp954
S'2018-05-29 19:07:16.011911'
p955
ag3
aa(lp956
S'2018-05-29 19:07:16.110696'
p957
ag3
aa(lp958
S'2018-05-29 19:07:16.206829'
p959
ag3
aa(lp960
S'2018-05-29 19:07:16.313303'
p961
ag3
aa(lp962
S'2018-05-29 19:07:16.409877'
p963
ag3
aa(lp964
S'2018-05-29 19:07:16.508149'
p965
ag3
aa(lp966
S'2018-05-29 19:07:16.605851'
p967
ag3
aa(lp968
S'2018-05-29 19:07:16.701467'
p969
ag3
aa(lp970
S'2018-05-29 19:07:16.810174'
p971
ag3
aa(lp972
S'2018-05-29 19:07:16.906190'
p973
ag3
aa(lp974
S'2018-05-29 19:07:17.011173'
p975
ag3
aa(lp976
S'2018-05-29 19:07:17.108794'
p977
ag3
aa(lp978
S'2018-05-29 19:07:17.206642'
p979
ag3
aa(lp980
S'2018-05-29 19:07:17.302615'
p981
ag3
aa(lp982
S'2018-05-29 19:07:17.410135'
p983
ag3
aa(lp984
S'2018-05-29 19:07:17.506899'
p985
ag3
aa(lp986
S'2018-05-29 19:07:17.604242'
p987
ag3
aa(lp988
S'2018-05-29 19:07:17.710408'
p989
ag3
aa(lp990
S'2018-05-29 19:07:17.806250'
p991
ag3
aa(lp992
S'2018-05-29 19:07:17.903215'
p993
ag3
aa(lp994
S'2018-05-29 19:07:18.009599'
p995
ag3
aa(lp996
S'2018-05-29 19:07:18.105576'
p997
ag3
aa(lp998
S'2018-05-29 19:07:18.212026'
p999
ag3
aa(lp1000
S'2018-05-29 19:07:18.310570'
p1001
ag3
aa(lp1002
S'2018-05-29 19:07:18.409845'
p1003
ag3
aa(lp1004
S'2018-05-29 19:07:18.508411'
p1005
ag3
aa(lp1006
S'2018-05-29 19:07:18.606125'
p1007
ag3
aa(lp1008
S'2018-05-29 19:07:18.712814'
p1009
ag3
aa(lp1010
S'2018-05-29 19:07:18.809623'
p1011
ag3
aa(lp1012
S'2018-05-29 19:07:18.905404'
p1013
ag3
aa(lp1014
S'2018-05-29 19:07:19.011838'
p1015
ag3
aa(lp1016
S'2018-05-29 19:07:19.107842'
p1017
ag3
aa(lp1018
S'2018-05-29 19:07:19.203350'
p1019
ag3
aa(lp1020
S'2018-05-29 19:07:19.310381'
p1021
ag3
aa(lp1022
S'2018-05-29 19:07:19.406345'
p1023
ag3
aa(lp1024
S'2018-05-29 19:07:19.501354'
p1025
ag3
aa(lp1026
S'2018-05-29 19:07:19.609425'
p1027
ag3
aa(lp1028
S'2018-05-29 19:07:19.705120'
p1029
ag3
aa(lp1030
S'2018-05-29 19:07:19.812051'
p1031
ag3
aa(lp1032
S'2018-05-29 19:07:19.910564'
p1033
ag3
aa(lp1034
S'2018-05-29 19:07:20.009036'
p1035
ag3
aa(lp1036
S'2018-05-29 19:07:20.104821'
p1037
ag3
aa(lp1038
S'2018-05-29 19:07:20.201600'
p1039
ag3
aa(lp1040
S'2018-05-29 19:07:20.310035'
p1041
ag3
aa(lp1042
S'2018-05-29 19:07:20.408845'
p1043
ag3
aa(lp1044
S'2018-05-29 19:07:20.505959'
p1045
ag3
aa(lp1046
S'2018-05-29 19:07:20.612589'
p1047
ag3
aa(lp1048
S'2018-05-29 19:07:20.710322'
p1049
ag3
aa(lp1050
S'2018-05-29 19:07:20.808968'
p1051
ag3
aa(lp1052
S'2018-05-29 19:07:20.906110'
p1053
ag3
aa(lp1054
S'2018-05-29 19:07:21.010539'
p1055
ag3
aa(lp1056
S'2018-05-29 19:07:21.106662'
p1057
ag3
aa(lp1058
S'2018-05-29 19:07:21.204087'
p1059
ag3
aa(lp1060
S'2018-05-29 19:07:21.308900'
p1061
ag3
aa(lp1062
S'2018-05-29 19:07:21.403838'
p1063
ag3
aa(lp1064
S'2018-05-29 19:07:21.508258'
p1065
ag3
aa(lp1066
S'2018-05-29 19:07:21.605710'
p1067
ag3
aa(lp1068
S'2018-05-29 19:07:21.702318'
p1069
ag3
aa(lp1070
S'2018-05-29 19:07:21.810976'
p1071
ag3
aa(lp1072
S'2018-05-29 19:07:21.905621'
p1073
ag3
aa(lp1074
S'2018-05-29 19:07:22.012645'
p1075
ag3
aa(lp1076
S'2018-05-29 19:07:22.109708'
p1077
ag3
aa(lp1078
S'2018-05-29 19:07:22.203892'
p1079
ag3
aa(lp1080
S'2018-05-29 19:07:22.310637'
p1081
ag3
aa(lp1082
S'2018-05-29 19:07:22.407028'
p1083
ag3
aa(lp1084
S'2018-05-29 19:07:22.511765'
p1085
ag3
aa(lp1086
S'2018-05-29 19:07:22.607655'
p1087
ag3
aa(lp1088
S'2018-05-29 19:07:22.702760'
p1089
ag3
aa(lp1090
S'2018-05-29 19:07:22.810038'
p1091
ag3
aa(lp1092
S'2018-05-29 19:07:22.907577'
p1093
ag3
aa(lp1094
S'2018-05-29 19:07:23.003280'
p1095
ag3
aa(lp1096
S'2018-05-29 19:07:23.109221'
p1097
ag3
aa(lp1098
S'2018-05-29 19:07:23.204002'
p1099
ag3
aa(lp1100
S'2018-05-29 19:07:23.310581'
p1101
ag3
aa(lp1102
S'2018-05-29 19:07:23.407350'
p1103
ag3
aa(lp1104
S'2018-05-29 19:07:23.506100'
p1105
ag3
aa(lp1106
S'2018-05-29 19:07:23.604563'
p1107
ag3
aa(lp1108
S'2018-05-29 19:07:23.701028'
p1109
ag3
aa(lp1110
S'2018-05-29 19:07:23.809906'
p1111
ag3
aa(lp1112
S'2018-05-29 19:07:23.908101'
p1113
ag3
aa(lp1114
S'2018-05-29 19:07:24.004621'
p1115
ag3
aa(lp1116
S'2018-05-29 19:07:24.109506'
p1117
ag3
aa(lp1118
S'2018-05-29 19:07:24.205830'
p1119
ag3
aa(lp1120
S'2018-05-29 19:07:24.302683'
p1121
ag3
aa(lp1122
S'2018-05-29 19:07:24.410043'
p1123
ag3
aa(lp1124
S'2018-05-29 19:07:24.505741'
p1125
ag3
aa(lp1126
S'2018-05-29 19:07:24.605173'
p1127
ag3
aa(lp1128
S'2018-05-29 19:07:24.702453'
p1129
ag3
aa(lp1130
S'2018-05-29 19:07:24.808181'
p1131
ag3
aa(lp1132
S'2018-05-29 19:07:24.905109'
p1133
ag3
aa(lp1134
S'2018-05-29 19:07:25.010557'
p1135
ag3
aa(lp1136
S'2018-05-29 19:07:25.108554'
p1137
ag3
aa(lp1138
S'2018-05-29 19:07:25.206810'
p1139
ag3
aa(lp1140
S'2018-05-29 19:07:25.313935'
p1141
ag3
aa(lp1142
S'2018-05-29 19:07:25.409374'
p1143
ag3
aa(lp1144
S'2018-05-29 19:07:25.508082'
p1145
ag3
aa(lp1146
S'2018-05-29 19:07:25.607024'
p1147
ag3
aa(lp1148
S'2018-05-29 19:07:25.705044'
p1149
ag3
aa(lp1150
S'2018-05-29 19:07:25.810227'
p1151
ag3
aa(lp1152
S'2018-05-29 19:07:25.906588'
p1153
ag3
aa(lp1154
S'2018-05-29 19:07:26.001435'
p1155
ag3
aa(lp1156
S'2018-05-29 19:07:26.108297'
p1157
ag3
aa(lp1158
S'2018-05-29 19:07:26.204499'
p1159
ag3
aa(lp1160
S'2018-05-29 19:07:26.300242'
p1161
ag3
aa(lp1162
S'2018-05-29 19:07:26.408194'
p1163
ag3
aa(lp1164
S'2018-05-29 19:07:26.505682'
p1165
ag3
aa(lp1166
S'2018-05-29 19:07:26.602455'
p1167
ag3
aa(lp1168
S'2018-05-29 19:07:26.710192'
p1169
ag3
aa(lp1170
S'2018-05-29 19:07:26.808084'
p1171
ag3
aa(lp1172
S'2018-05-29 19:07:26.905006'
p1173
ag3
aa(lp1174
S'2018-05-29 19:07:27.012538'
p1175
ag3
aa(lp1176
S'2018-05-29 19:07:27.110296'
p1177
ag3
aa(lp1178
S'2018-05-29 19:07:27.208369'
p1179
ag3
aa(lp1180
S'2018-05-29 19:07:27.308143'
p1181
ag3
aa(lp1182
S'2018-05-29 19:07:27.405267'
p1183
ag3
aa(lp1184
S'2018-05-29 19:07:27.502052'
p1185
ag3
aa(lp1186
S'2018-05-29 19:07:27.607889'
p1187
ag3
aa(lp1188
S'2018-05-29 19:07:27.704169'
p1189
ag3
aa(lp1190
S'2018-05-29 19:07:27.800767'
p1191
ag3
aa(lp1192
S'2018-05-29 19:07:27.907926'
p1193
ag3
aa(lp1194
S'2018-05-29 19:07:28.005897'
p1195
ag3
aa(lp1196
S'2018-05-29 19:07:28.102951'
p1197
ag3
aa(lp1198
S'2018-05-29 19:07:28.201297'
p1199
ag3
aa(lp1200
S'2018-05-29 19:07:28.309490'
p1201
ag3
aa(lp1202
S'2018-05-29 19:07:28.405690'
p1203
ag3
aa(lp1204
S'2018-05-29 19:07:28.501536'
p1205
ag3
aa(lp1206
S'2018-05-29 19:07:28.607977'
p1207
ag3
aa(lp1208
S'2018-05-29 19:07:28.705746'
p1209
ag3
aa(lp1210
S'2018-05-29 19:07:28.802588'
p1211
ag3
aa(lp1212
S'2018-05-29 19:07:28.910698'
p1213
ag3
aa(lp1214
S'2018-05-29 19:07:29.006703'
p1215
ag3
aa(lp1216
S'2018-05-29 19:07:29.102100'
p1217
ag3
aa(lp1218
S'2018-05-29 19:07:29.209486'
p1219
ag3
aa(lp1220
S'2018-05-29 19:07:29.308002'
p1221
ag3
aa(lp1222
S'2018-05-29 19:07:29.405549'
p1223
ag3
aa(lp1224
S'2018-05-29 19:07:29.501672'
p1225
ag3
aa.